ARM GAS  C:\Users\robert\AppData\Local\Temp\ccN28sHs.s 			page 1


   1              		.syntax unified
   2              		.cpu cortex-m3
   3              		.fpu softvfp
   4              		.eabi_attribute 20, 1
   5              		.eabi_attribute 21, 1
   6              		.eabi_attribute 23, 3
   7              		.eabi_attribute 24, 1
   8              		.eabi_attribute 25, 1
   9              		.eabi_attribute 26, 1
  10              		.eabi_attribute 30, 1
  11              		.eabi_attribute 34, 1
  12              		.eabi_attribute 18, 4
  13              		.thumb
  14              		.file	"I2C_LCD.c"
  15              		.text
  16              	.Ltext0:
  17              		.cfi_sections	.debug_frame
  18              		.section	.text.I2C_LCD_WrDataToBuff,"ax",%progbits
  19              		.align	2
  20              		.thumb
  21              		.thumb_func
  22              		.type	I2C_LCD_WrDataToBuff, %function
  23              	I2C_LCD_WrDataToBuff:
  24              	.LFB6:
  25              		.file 1 ".\\Generated_Source\\PSoC5\\I2C_LCD.c"
   1:.\Generated_Source\PSoC5/I2C_LCD.c **** /*******************************************************************************
   2:.\Generated_Source\PSoC5/I2C_LCD.c **** * File Name: I2C_LCD.c
   3:.\Generated_Source\PSoC5/I2C_LCD.c **** * Version 1.20
   4:.\Generated_Source\PSoC5/I2C_LCD.c **** *
   5:.\Generated_Source\PSoC5/I2C_LCD.c **** * Description:
   6:.\Generated_Source\PSoC5/I2C_LCD.c **** *  This file provides source code for the I2C LCD component's API.
   7:.\Generated_Source\PSoC5/I2C_LCD.c **** *
   8:.\Generated_Source\PSoC5/I2C_LCD.c **** * Note:
   9:.\Generated_Source\PSoC5/I2C_LCD.c **** *
  10:.\Generated_Source\PSoC5/I2C_LCD.c **** ********************************************************************************
  11:.\Generated_Source\PSoC5/I2C_LCD.c **** * Copyright 2013-2014, Cypress Semiconductor Corporation.  All rights reserved.
  12:.\Generated_Source\PSoC5/I2C_LCD.c **** * You may use this file only in accordance with the license, terms, conditions,
  13:.\Generated_Source\PSoC5/I2C_LCD.c **** * disclaimers, and limitations in the end user license agreement accompanying
  14:.\Generated_Source\PSoC5/I2C_LCD.c **** * the software package with which this file was provided.
  15:.\Generated_Source\PSoC5/I2C_LCD.c **** *******************************************************************************/
  16:.\Generated_Source\PSoC5/I2C_LCD.c **** 
  17:.\Generated_Source\PSoC5/I2C_LCD.c **** #include "I2C_LCD.h"
  18:.\Generated_Source\PSoC5/I2C_LCD.c **** 
  19:.\Generated_Source\PSoC5/I2C_LCD.c **** 
  20:.\Generated_Source\PSoC5/I2C_LCD.c **** /* Internal function ptototypes */
  21:.\Generated_Source\PSoC5/I2C_LCD.c **** static void I2C_LCD_WrDataToBuff(uint8 dByte) CYREENTRANT;
  22:.\Generated_Source\PSoC5/I2C_LCD.c **** static void I2C_LCD_WrCntrlPatt(uint8 cmdIndex) CYREENTRANT;
  23:.\Generated_Source\PSoC5/I2C_LCD.c **** static void I2C_LCD_SendSequence(void) CYREENTRANT;
  24:.\Generated_Source\PSoC5/I2C_LCD.c **** 
  25:.\Generated_Source\PSoC5/I2C_LCD.c **** #if (I2C_LCD_COMMAND_FORMAT == I2C_LCD_NXP_PCF2119X)
  26:.\Generated_Source\PSoC5/I2C_LCD.c ****     static void I2C_LCD_SendCmd(uint8 cmd) CYREENTRANT;
  27:.\Generated_Source\PSoC5/I2C_LCD.c **** #endif /* I2C_LCD_COMMAND_FORMAT == I2C_LCD_NXP_PCF2119X */
  28:.\Generated_Source\PSoC5/I2C_LCD.c **** 
  29:.\Generated_Source\PSoC5/I2C_LCD.c **** uint8 I2C_LCD_initVar = 0u;
  30:.\Generated_Source\PSoC5/I2C_LCD.c **** 
  31:.\Generated_Source\PSoC5/I2C_LCD.c **** /* Buffer that holds data to be send to LCD slave */
  32:.\Generated_Source\PSoC5/I2C_LCD.c **** static uint8 I2C_LCD_buff[I2C_LCD_BUFF_SIZE];
ARM GAS  C:\Users\robert\AppData\Local\Temp\ccN28sHs.s 			page 2


  33:.\Generated_Source\PSoC5/I2C_LCD.c **** 
  34:.\Generated_Source\PSoC5/I2C_LCD.c **** /* Need to have I2C_LCD_buffIndex of different size to avoid MISRA
  35:.\Generated_Source\PSoC5/I2C_LCD.c **** * warning when SCB based I2C Master is used. 
  36:.\Generated_Source\PSoC5/I2C_LCD.c **** */
  37:.\Generated_Source\PSoC5/I2C_LCD.c **** #if(I2C_LCD_IS_SCB_MASTER_USED)
  38:.\Generated_Source\PSoC5/I2C_LCD.c ****     /* Variable used for buffer indexing */
  39:.\Generated_Source\PSoC5/I2C_LCD.c ****     static uint32 I2C_LCD_buffIndex = 0u;
  40:.\Generated_Source\PSoC5/I2C_LCD.c ****     /* Variable stores the I2C address */
  41:.\Generated_Source\PSoC5/I2C_LCD.c ****     static uint32 I2C_LCD_address = I2C_LCD_DEFAULT_I2C_ADDRESS;
  42:.\Generated_Source\PSoC5/I2C_LCD.c **** #else
  43:.\Generated_Source\PSoC5/I2C_LCD.c ****     /* Variable used for buffer indexing */
  44:.\Generated_Source\PSoC5/I2C_LCD.c ****     static uint8 I2C_LCD_buffIndex = 0u;
  45:.\Generated_Source\PSoC5/I2C_LCD.c ****     /* Variable stores the I2C address */
  46:.\Generated_Source\PSoC5/I2C_LCD.c ****     static uint8 I2C_LCD_address = I2C_LCD_DEFAULT_I2C_ADDRESS;
  47:.\Generated_Source\PSoC5/I2C_LCD.c **** #endif /* (I2C_LCD_IS_SCB_MASTER_USED) */
  48:.\Generated_Source\PSoC5/I2C_LCD.c **** 
  49:.\Generated_Source\PSoC5/I2C_LCD.c **** /********************
  50:.\Generated_Source\PSoC5/I2C_LCD.c **** * Generated Code
  51:.\Generated_Source\PSoC5/I2C_LCD.c **** ********************/
  52:.\Generated_Source\PSoC5/I2C_LCD.c **** /* Array with command patterns */
  53:.\Generated_Source\PSoC5/I2C_LCD.c **** static const uint8 CYCODE I2C_LCD_cmdPatt[19u][3u] =
  54:.\Generated_Source\PSoC5/I2C_LCD.c **** {
  55:.\Generated_Source\PSoC5/I2C_LCD.c ****     /* Command pattern for writing data */
  56:.\Generated_Source\PSoC5/I2C_LCD.c ****     {0x01u, 0x40u, 0x00u},
  57:.\Generated_Source\PSoC5/I2C_LCD.c ****     /* Display on, cursor off */
  58:.\Generated_Source\PSoC5/I2C_LCD.c ****     {0x02u, 0x00u, 0x0Cu},
  59:.\Generated_Source\PSoC5/I2C_LCD.c ****     /* Display and cursor off */
  60:.\Generated_Source\PSoC5/I2C_LCD.c ****     {0x02u, 0x00u, 0x08u},
  61:.\Generated_Source\PSoC5/I2C_LCD.c ****     /* Set cursor position */
  62:.\Generated_Source\PSoC5/I2C_LCD.c ****     {0x01u, 0x00u, 0x80u},
  63:.\Generated_Source\PSoC5/I2C_LCD.c ****     /* Cursor home */
  64:.\Generated_Source\PSoC5/I2C_LCD.c ****     {0x02u, 0x00u, 0x02u},
  65:.\Generated_Source\PSoC5/I2C_LCD.c ****     /* Reset cursor position */
  66:.\Generated_Source\PSoC5/I2C_LCD.c ****     {0x02u, 0x00u, 0x03u},
  67:.\Generated_Source\PSoC5/I2C_LCD.c ****     /* Move cursor left one place */
  68:.\Generated_Source\PSoC5/I2C_LCD.c ****     {0x02u, 0x00u, 0x10u},
  69:.\Generated_Source\PSoC5/I2C_LCD.c ****     /* Move cursor right one place */
  70:.\Generated_Source\PSoC5/I2C_LCD.c ****     {0x02u, 0x00u, 0x14u},
  71:.\Generated_Source\PSoC5/I2C_LCD.c ****     /* Underline cursor on */
  72:.\Generated_Source\PSoC5/I2C_LCD.c ****     {0x02u, 0x00u, 0x0Eu},
  73:.\Generated_Source\PSoC5/I2C_LCD.c ****     /* Display - on, cursor - off, set cursor wink */
  74:.\Generated_Source\PSoC5/I2C_LCD.c ****     {0x02u, 0x00u, 0x0Du},
  75:.\Generated_Source\PSoC5/I2C_LCD.c ****     /* Display - on, cursor - off, set cursor blink */
  76:.\Generated_Source\PSoC5/I2C_LCD.c ****     {0x02u, 0x00u, 0x0Fu},
  77:.\Generated_Source\PSoC5/I2C_LCD.c ****     /* Clear screen */
  78:.\Generated_Source\PSoC5/I2C_LCD.c ****     {0x02u, 0x00u, 0x01u},
  79:.\Generated_Source\PSoC5/I2C_LCD.c ****     /* Load custom character */
  80:.\Generated_Source\PSoC5/I2C_LCD.c ****     {0x02u, 0x00u, 0x40u},
  81:.\Generated_Source\PSoC5/I2C_LCD.c ****     /* Set display for 2 lines and 16 characters */
  82:.\Generated_Source\PSoC5/I2C_LCD.c ****     {0x02u, 0x00u, 0x24u},
  83:.\Generated_Source\PSoC5/I2C_LCD.c ****     /* Move cursor/shift display right (cursor position auto increment) */
  84:.\Generated_Source\PSoC5/I2C_LCD.c ****     {0x02u, 0x00u, 0x06u},
  85:.\Generated_Source\PSoC5/I2C_LCD.c ****     /* Move cursor/shift display right (cursor position auto decrement) */
  86:.\Generated_Source\PSoC5/I2C_LCD.c ****     {0x02u, 0x00u, 0x04u},
  87:.\Generated_Source\PSoC5/I2C_LCD.c ****     /* Custom command */
  88:.\Generated_Source\PSoC5/I2C_LCD.c ****     {0x02u, 0x00u, 0x25u},
  89:.\Generated_Source\PSoC5/I2C_LCD.c ****     /* Custom command */
ARM GAS  C:\Users\robert\AppData\Local\Temp\ccN28sHs.s 			page 3


  90:.\Generated_Source\PSoC5/I2C_LCD.c ****     {0x02u, 0x00u, 0x05u},
  91:.\Generated_Source\PSoC5/I2C_LCD.c ****     /* Custom command */
  92:.\Generated_Source\PSoC5/I2C_LCD.c ****     {0x02u, 0x00u, 0x04u}
  93:.\Generated_Source\PSoC5/I2C_LCD.c **** };
  94:.\Generated_Source\PSoC5/I2C_LCD.c **** 
  95:.\Generated_Source\PSoC5/I2C_LCD.c **** /********************
  96:.\Generated_Source\PSoC5/I2C_LCD.c **** * Generated Code 
  97:.\Generated_Source\PSoC5/I2C_LCD.c **** ********************/
  98:.\Generated_Source\PSoC5/I2C_LCD.c **** /* Optional: Array with custom character set */
  99:.\Generated_Source\PSoC5/I2C_LCD.c **** uint8 const CYCODE I2C_LCD_customFonts[64u] =
 100:.\Generated_Source\PSoC5/I2C_LCD.c **** {
 101:.\Generated_Source\PSoC5/I2C_LCD.c ****     0x00u, 0x0Eu, 0x08u, 0x08u, 0x08u, 0x0Eu, 0x00u, 0x00u, 
 102:.\Generated_Source\PSoC5/I2C_LCD.c ****     0x00u, 0x0Au, 0x0Au, 0x04u, 0x04u, 0x04u, 0x00u, 0x00u, 
 103:.\Generated_Source\PSoC5/I2C_LCD.c ****     0x00u, 0x0Eu, 0x0Au, 0x0Eu, 0x08u, 0x08u, 0x00u, 0x00u, 
 104:.\Generated_Source\PSoC5/I2C_LCD.c ****     0x00u, 0x0Eu, 0x0Au, 0x0Cu, 0x0Au, 0x0Au, 0x00u, 0x00u, 
 105:.\Generated_Source\PSoC5/I2C_LCD.c ****     0x00u, 0x0Eu, 0x08u, 0x0Cu, 0x08u, 0x0Eu, 0x00u, 0x00u, 
 106:.\Generated_Source\PSoC5/I2C_LCD.c ****     0x00u, 0x0Eu, 0x08u, 0x0Eu, 0x02u, 0x0Eu, 0x00u, 0x00u, 
 107:.\Generated_Source\PSoC5/I2C_LCD.c ****     0x00u, 0x0Eu, 0x08u, 0x0Eu, 0x02u, 0x0Eu, 0x00u, 0x00u, 
 108:.\Generated_Source\PSoC5/I2C_LCD.c ****     0x00u, 0x04u, 0x04u, 0x04u, 0x00u, 0x04u, 0x00u, 0x00u
 109:.\Generated_Source\PSoC5/I2C_LCD.c **** };
 110:.\Generated_Source\PSoC5/I2C_LCD.c **** 
 111:.\Generated_Source\PSoC5/I2C_LCD.c **** 
 112:.\Generated_Source\PSoC5/I2C_LCD.c **** /*******************************************************************************
 113:.\Generated_Source\PSoC5/I2C_LCD.c **** * Function Name: I2C_LCD_Init
 114:.\Generated_Source\PSoC5/I2C_LCD.c **** ********************************************************************************
 115:.\Generated_Source\PSoC5/I2C_LCD.c **** *
 116:.\Generated_Source\PSoC5/I2C_LCD.c **** * Summary:
 117:.\Generated_Source\PSoC5/I2C_LCD.c **** *  Performs initialization required for the component's normal work.
 118:.\Generated_Source\PSoC5/I2C_LCD.c **** *  I2C_LCD_Init() also loads the custom character set if it was defined in the
 119:.\Generated_Source\PSoC5/I2C_LCD.c **** *  Configure dialog.
 120:.\Generated_Source\PSoC5/I2C_LCD.c **** *
 121:.\Generated_Source\PSoC5/I2C_LCD.c **** * Parameters:
 122:.\Generated_Source\PSoC5/I2C_LCD.c **** *  None
 123:.\Generated_Source\PSoC5/I2C_LCD.c **** *
 124:.\Generated_Source\PSoC5/I2C_LCD.c **** * Return:
 125:.\Generated_Source\PSoC5/I2C_LCD.c **** *  None
 126:.\Generated_Source\PSoC5/I2C_LCD.c **** *
 127:.\Generated_Source\PSoC5/I2C_LCD.c **** * Reentrant:
 128:.\Generated_Source\PSoC5/I2C_LCD.c **** *  No
 129:.\Generated_Source\PSoC5/I2C_LCD.c **** *
 130:.\Generated_Source\PSoC5/I2C_LCD.c **** *******************************************************************************/
 131:.\Generated_Source\PSoC5/I2C_LCD.c **** void I2C_LCD_Init(void) 
 132:.\Generated_Source\PSoC5/I2C_LCD.c **** {
 133:.\Generated_Source\PSoC5/I2C_LCD.c ****     /* Following part of code is only applicable for NXP LCDs */
 134:.\Generated_Source\PSoC5/I2C_LCD.c ****     #if (I2C_LCD_COMMAND_FORMAT == I2C_LCD_NXP_PCF2119X)
 135:.\Generated_Source\PSoC5/I2C_LCD.c ****         /* Select Extended Instruction set, 2x16 display */
 136:.\Generated_Source\PSoC5/I2C_LCD.c ****         I2C_LCD_SendCmd(I2C_LCD_SET_EXTENDED_FUNC);
 137:.\Generated_Source\PSoC5/I2C_LCD.c ****         /* Split screen configuration  */
 138:.\Generated_Source\PSoC5/I2C_LCD.c ****         I2C_LCD_SendCmd(I2C_LCD_SPLIT_SCREEN);
 139:.\Generated_Source\PSoC5/I2C_LCD.c ****         /* LCD Module format: left to right column, and top to bottom rows  */
 140:.\Generated_Source\PSoC5/I2C_LCD.c ****         I2C_LCD_SendCmd(I2C_LCD_DISP_CONF);
 141:.\Generated_Source\PSoC5/I2C_LCD.c ****         /* Icon mode not supported. Disable all icon enable settings */
 142:.\Generated_Source\PSoC5/I2C_LCD.c ****         I2C_LCD_SendCmd(I2C_LCD_ICON_CTL);
 143:.\Generated_Source\PSoC5/I2C_LCD.c ****         /* Set LCD bias voltage to 4.38 V since LCD module datasheet recommends 4.4 V */
 144:.\Generated_Source\PSoC5/I2C_LCD.c ****         I2C_LCD_SendCmd(I2C_LCD_VLCD_SET);
 145:.\Generated_Source\PSoC5/I2C_LCD.c ****         /* Select Standard Instruction set, 2x16 display */
 146:.\Generated_Source\PSoC5/I2C_LCD.c ****         I2C_LCD_SendCmd(I2C_LCD_FUNCTION_SET_STANDARD);
ARM GAS  C:\Users\robert\AppData\Local\Temp\ccN28sHs.s 			page 4


 147:.\Generated_Source\PSoC5/I2C_LCD.c ****     #endif /* (I2C_LCD_COMMAND_FORMAT == I2C_LCD_NXP_PCF2119X) */
 148:.\Generated_Source\PSoC5/I2C_LCD.c ****     
 149:.\Generated_Source\PSoC5/I2C_LCD.c ****     /* Configure LCD for 2 lines and 16 characters */
 150:.\Generated_Source\PSoC5/I2C_LCD.c ****     I2C_LCD_WriteControl(I2C_LCD_DISPLAY_2_LINES_5x10);
 151:.\Generated_Source\PSoC5/I2C_LCD.c ****     /* Turn on both display and cursor */
 152:.\Generated_Source\PSoC5/I2C_LCD.c ****     I2C_LCD_WriteControl(I2C_LCD_DISPLAY_CURSOR_ON);
 153:.\Generated_Source\PSoC5/I2C_LCD.c ****     /* Turn on cursor auto incrementing */
 154:.\Generated_Source\PSoC5/I2C_LCD.c ****     I2C_LCD_WriteControl(I2C_LCD_CURSOR_AUTO_INCR_ON);
 155:.\Generated_Source\PSoC5/I2C_LCD.c ****     /* Turn off cursor underlining */
 156:.\Generated_Source\PSoC5/I2C_LCD.c ****     I2C_LCD_WriteControl(I2C_LCD_DISPLAY_ON_CURSOR_OFF);
 157:.\Generated_Source\PSoC5/I2C_LCD.c ****     /* Clear the Display */
 158:.\Generated_Source\PSoC5/I2C_LCD.c ****     I2C_LCD_ClearDisplay();
 159:.\Generated_Source\PSoC5/I2C_LCD.c ****     
 160:.\Generated_Source\PSoC5/I2C_LCD.c ****     /* Load custom character set */
 161:.\Generated_Source\PSoC5/I2C_LCD.c ****     #if(I2C_LCD_CUSTOM_CHAR_SET != I2C_LCD_NONE)
 162:.\Generated_Source\PSoC5/I2C_LCD.c ****         I2C_LCD_LoadCustomFonts(I2C_LCD_customFonts);
 163:.\Generated_Source\PSoC5/I2C_LCD.c ****     #endif /* I2C_LCD_CUSTOM_CHAR_SET != I2C_LCD_NONE */
 164:.\Generated_Source\PSoC5/I2C_LCD.c **** }
 165:.\Generated_Source\PSoC5/I2C_LCD.c **** 
 166:.\Generated_Source\PSoC5/I2C_LCD.c **** 
 167:.\Generated_Source\PSoC5/I2C_LCD.c **** /*******************************************************************************
 168:.\Generated_Source\PSoC5/I2C_LCD.c **** * Function Name: I2C_LCD_Enable
 169:.\Generated_Source\PSoC5/I2C_LCD.c **** ********************************************************************************
 170:.\Generated_Source\PSoC5/I2C_LCD.c **** *
 171:.\Generated_Source\PSoC5/I2C_LCD.c **** * Summary:
 172:.\Generated_Source\PSoC5/I2C_LCD.c **** *  Turns on the display.
 173:.\Generated_Source\PSoC5/I2C_LCD.c **** *
 174:.\Generated_Source\PSoC5/I2C_LCD.c **** * Parameters:
 175:.\Generated_Source\PSoC5/I2C_LCD.c **** *  None
 176:.\Generated_Source\PSoC5/I2C_LCD.c **** *
 177:.\Generated_Source\PSoC5/I2C_LCD.c **** * Return:
 178:.\Generated_Source\PSoC5/I2C_LCD.c **** *  None
 179:.\Generated_Source\PSoC5/I2C_LCD.c **** *
 180:.\Generated_Source\PSoC5/I2C_LCD.c **** * Reentrant:
 181:.\Generated_Source\PSoC5/I2C_LCD.c **** *  No
 182:.\Generated_Source\PSoC5/I2C_LCD.c **** *
 183:.\Generated_Source\PSoC5/I2C_LCD.c **** * Theory:
 184:.\Generated_Source\PSoC5/I2C_LCD.c **** *  This function has no effect when it called first time as
 185:.\Generated_Source\PSoC5/I2C_LCD.c **** *  I2C_LCD_Init() turns on the LCD.
 186:.\Generated_Source\PSoC5/I2C_LCD.c **** *
 187:.\Generated_Source\PSoC5/I2C_LCD.c **** *******************************************************************************/
 188:.\Generated_Source\PSoC5/I2C_LCD.c **** void I2C_LCD_Enable(void) 
 189:.\Generated_Source\PSoC5/I2C_LCD.c **** {
 190:.\Generated_Source\PSoC5/I2C_LCD.c ****     I2C_LCD_DisplayOn();
 191:.\Generated_Source\PSoC5/I2C_LCD.c **** }
 192:.\Generated_Source\PSoC5/I2C_LCD.c **** 
 193:.\Generated_Source\PSoC5/I2C_LCD.c **** 
 194:.\Generated_Source\PSoC5/I2C_LCD.c **** /*******************************************************************************
 195:.\Generated_Source\PSoC5/I2C_LCD.c **** * Function Name: I2C_LCD_Start
 196:.\Generated_Source\PSoC5/I2C_LCD.c **** ********************************************************************************
 197:.\Generated_Source\PSoC5/I2C_LCD.c **** *
 198:.\Generated_Source\PSoC5/I2C_LCD.c **** * Summary:
 199:.\Generated_Source\PSoC5/I2C_LCD.c **** *  This function initializes the LCD hardware module as follows:
 200:.\Generated_Source\PSoC5/I2C_LCD.c **** *       Initialize the I2C bus if it hasn't already been
 201:.\Generated_Source\PSoC5/I2C_LCD.c **** *       Clears the display;
 202:.\Generated_Source\PSoC5/I2C_LCD.c **** *       Enables auto cursor increment;
 203:.\Generated_Source\PSoC5/I2C_LCD.c **** *       Resets the cursor to start position;
ARM GAS  C:\Users\robert\AppData\Local\Temp\ccN28sHs.s 			page 5


 204:.\Generated_Source\PSoC5/I2C_LCD.c **** *       It also loads a custom character set to LCD if it was defined in the
 205:.\Generated_Source\PSoC5/I2C_LCD.c **** *  customizer's GUI.
 206:.\Generated_Source\PSoC5/I2C_LCD.c **** *
 207:.\Generated_Source\PSoC5/I2C_LCD.c **** * Parameters:
 208:.\Generated_Source\PSoC5/I2C_LCD.c **** *  I2C_LCD_initVar - global variable.
 209:.\Generated_Source\PSoC5/I2C_LCD.c **** *
 210:.\Generated_Source\PSoC5/I2C_LCD.c **** * Return:
 211:.\Generated_Source\PSoC5/I2C_LCD.c **** *  I2C_LCD_initVar - global variable.
 212:.\Generated_Source\PSoC5/I2C_LCD.c **** *
 213:.\Generated_Source\PSoC5/I2C_LCD.c **** * Reentrant:
 214:.\Generated_Source\PSoC5/I2C_LCD.c **** *  No
 215:.\Generated_Source\PSoC5/I2C_LCD.c **** *
 216:.\Generated_Source\PSoC5/I2C_LCD.c **** *******************************************************************************/
 217:.\Generated_Source\PSoC5/I2C_LCD.c **** void I2C_LCD_Start(void) 
 218:.\Generated_Source\PSoC5/I2C_LCD.c **** {
 219:.\Generated_Source\PSoC5/I2C_LCD.c ****     /* If not initialized then perform initialization */
 220:.\Generated_Source\PSoC5/I2C_LCD.c ****     if(I2C_LCD_initVar == 0u)
 221:.\Generated_Source\PSoC5/I2C_LCD.c ****     {
 222:.\Generated_Source\PSoC5/I2C_LCD.c ****         I2C_LCD_Init();
 223:.\Generated_Source\PSoC5/I2C_LCD.c ****         I2C_LCD_initVar = 1u;
 224:.\Generated_Source\PSoC5/I2C_LCD.c ****     }
 225:.\Generated_Source\PSoC5/I2C_LCD.c **** 
 226:.\Generated_Source\PSoC5/I2C_LCD.c ****     /* Turn on the LCD */
 227:.\Generated_Source\PSoC5/I2C_LCD.c ****     I2C_LCD_Enable();
 228:.\Generated_Source\PSoC5/I2C_LCD.c **** }
 229:.\Generated_Source\PSoC5/I2C_LCD.c **** 
 230:.\Generated_Source\PSoC5/I2C_LCD.c **** 
 231:.\Generated_Source\PSoC5/I2C_LCD.c **** /*******************************************************************************
 232:.\Generated_Source\PSoC5/I2C_LCD.c **** * Function Name: I2C_LCD_Stop
 233:.\Generated_Source\PSoC5/I2C_LCD.c **** ********************************************************************************
 234:.\Generated_Source\PSoC5/I2C_LCD.c **** *
 235:.\Generated_Source\PSoC5/I2C_LCD.c **** * Summary:
 236:.\Generated_Source\PSoC5/I2C_LCD.c **** *  Turns off the display of the LCD screen but does not stop the I2C Master
 237:.\Generated_Source\PSoC5/I2C_LCD.c **** *  component.
 238:.\Generated_Source\PSoC5/I2C_LCD.c **** *
 239:.\Generated_Source\PSoC5/I2C_LCD.c **** * Parameters:
 240:.\Generated_Source\PSoC5/I2C_LCD.c **** *  None
 241:.\Generated_Source\PSoC5/I2C_LCD.c **** *
 242:.\Generated_Source\PSoC5/I2C_LCD.c **** * Return:
 243:.\Generated_Source\PSoC5/I2C_LCD.c **** *  None
 244:.\Generated_Source\PSoC5/I2C_LCD.c **** *
 245:.\Generated_Source\PSoC5/I2C_LCD.c **** * Reentrant:
 246:.\Generated_Source\PSoC5/I2C_LCD.c **** *  No
 247:.\Generated_Source\PSoC5/I2C_LCD.c **** *
 248:.\Generated_Source\PSoC5/I2C_LCD.c **** *******************************************************************************/
 249:.\Generated_Source\PSoC5/I2C_LCD.c **** void I2C_LCD_Stop(void) 
 250:.\Generated_Source\PSoC5/I2C_LCD.c **** {
 251:.\Generated_Source\PSoC5/I2C_LCD.c ****     I2C_LCD_DisplayOff();
 252:.\Generated_Source\PSoC5/I2C_LCD.c **** }
 253:.\Generated_Source\PSoC5/I2C_LCD.c **** 
 254:.\Generated_Source\PSoC5/I2C_LCD.c **** 
 255:.\Generated_Source\PSoC5/I2C_LCD.c **** /*******************************************************************************
 256:.\Generated_Source\PSoC5/I2C_LCD.c **** *  Function Name: I2C_LCD_Position
 257:.\Generated_Source\PSoC5/I2C_LCD.c **** ********************************************************************************
 258:.\Generated_Source\PSoC5/I2C_LCD.c **** *
 259:.\Generated_Source\PSoC5/I2C_LCD.c **** * Summary:
 260:.\Generated_Source\PSoC5/I2C_LCD.c **** *  Moves the cursor to the location specified by arguments row and column.
ARM GAS  C:\Users\robert\AppData\Local\Temp\ccN28sHs.s 			page 6


 261:.\Generated_Source\PSoC5/I2C_LCD.c **** *
 262:.\Generated_Source\PSoC5/I2C_LCD.c **** * Parameters:
 263:.\Generated_Source\PSoC5/I2C_LCD.c **** *  row:     The row number at which to position the cursor. Minimum value is
 264:.\Generated_Source\PSoC5/I2C_LCD.c **** *           zero.
 265:.\Generated_Source\PSoC5/I2C_LCD.c **** *  column:  The column number at which to position the cursor. Minimum value is
 266:.\Generated_Source\PSoC5/I2C_LCD.c **** *           zero.
 267:.\Generated_Source\PSoC5/I2C_LCD.c **** *
 268:.\Generated_Source\PSoC5/I2C_LCD.c **** * Return:
 269:.\Generated_Source\PSoC5/I2C_LCD.c **** *  None
 270:.\Generated_Source\PSoC5/I2C_LCD.c **** *
 271:.\Generated_Source\PSoC5/I2C_LCD.c **** * Reentrant:
 272:.\Generated_Source\PSoC5/I2C_LCD.c **** *  No
 273:.\Generated_Source\PSoC5/I2C_LCD.c **** *
 274:.\Generated_Source\PSoC5/I2C_LCD.c **** *******************************************************************************/
 275:.\Generated_Source\PSoC5/I2C_LCD.c **** void I2C_LCD_Position(uint8 row, uint8 column) 
 276:.\Generated_Source\PSoC5/I2C_LCD.c **** {
 277:.\Generated_Source\PSoC5/I2C_LCD.c ****     /* Write command pattern for "Set cursor position" to buffer */
 278:.\Generated_Source\PSoC5/I2C_LCD.c ****     I2C_LCD_WrCntrlPatt(I2C_LCD_DDRAM_0_IDX);
 279:.\Generated_Source\PSoC5/I2C_LCD.c **** 
 280:.\Generated_Source\PSoC5/I2C_LCD.c ****     #if(I2C_LCD_LENGTH_2_BYTES == I2C_LCD_DDRAM_0_DATA_LEN)
 281:.\Generated_Source\PSoC5/I2C_LCD.c ****         /* In case when there two bytes of data for "Set cursor position" it is
 282:.\Generated_Source\PSoC5/I2C_LCD.c ****         * required to send both row and column. The numeration of rows and 
 283:.\Generated_Source\PSoC5/I2C_LCD.c ****         * columns starts from '1' so the row and column should be incremented.
 284:.\Generated_Source\PSoC5/I2C_LCD.c ****         */
 285:.\Generated_Source\PSoC5/I2C_LCD.c ****         I2C_LCD_WrDataToBuff(column + 1u);
 286:.\Generated_Source\PSoC5/I2C_LCD.c ****         I2C_LCD_WrDataToBuff(row + 1u);
 287:.\Generated_Source\PSoC5/I2C_LCD.c ****     #else
 288:.\Generated_Source\PSoC5/I2C_LCD.c ****         /* Position is sent as one byte so it is required to calculate the position */
 289:.\Generated_Source\PSoC5/I2C_LCD.c ****         switch (row)
 290:.\Generated_Source\PSoC5/I2C_LCD.c ****         {
 291:.\Generated_Source\PSoC5/I2C_LCD.c ****             case (uint8) 0u:
 292:.\Generated_Source\PSoC5/I2C_LCD.c ****                 /* To avoid MISRA warnig */
 293:.\Generated_Source\PSoC5/I2C_LCD.c ****                 #if (I2C_LCD_COMMAND_FORMAT == I2C_LCD_NXP_PCF2119X)
 294:.\Generated_Source\PSoC5/I2C_LCD.c ****                     I2C_LCD_WrDataToBuff(I2C_LCD_ROW_0_START + column);
 295:.\Generated_Source\PSoC5/I2C_LCD.c ****                 #else
 296:.\Generated_Source\PSoC5/I2C_LCD.c ****                     I2C_LCD_WrDataToBuff(column);
 297:.\Generated_Source\PSoC5/I2C_LCD.c ****                 #endif /* (I2C_LCD_COMMAND_FORMAT == I2C_LCD_NXP_PCF2119X) */
 298:.\Generated_Source\PSoC5/I2C_LCD.c ****                 
 299:.\Generated_Source\PSoC5/I2C_LCD.c ****                 break;
 300:.\Generated_Source\PSoC5/I2C_LCD.c ****             
 301:.\Generated_Source\PSoC5/I2C_LCD.c ****             case (uint8) 1u:
 302:.\Generated_Source\PSoC5/I2C_LCD.c ****                 I2C_LCD_WrDataToBuff(I2C_LCD_ROW_1_START + column);
 303:.\Generated_Source\PSoC5/I2C_LCD.c ****                 break;
 304:.\Generated_Source\PSoC5/I2C_LCD.c ****             
 305:.\Generated_Source\PSoC5/I2C_LCD.c ****             case (uint8) 2u:
 306:.\Generated_Source\PSoC5/I2C_LCD.c ****                 I2C_LCD_WrDataToBuff(I2C_LCD_ROW_2_START + column);
 307:.\Generated_Source\PSoC5/I2C_LCD.c ****                 break;
 308:.\Generated_Source\PSoC5/I2C_LCD.c ****             
 309:.\Generated_Source\PSoC5/I2C_LCD.c ****             case (uint8) 3u:
 310:.\Generated_Source\PSoC5/I2C_LCD.c ****                 I2C_LCD_WrDataToBuff(I2C_LCD_ROW_3_START + column);
 311:.\Generated_Source\PSoC5/I2C_LCD.c ****                 break;
 312:.\Generated_Source\PSoC5/I2C_LCD.c ****             
 313:.\Generated_Source\PSoC5/I2C_LCD.c ****             default:
 314:.\Generated_Source\PSoC5/I2C_LCD.c ****                 /* if default case is hit, invalid row argument was passed.*/
 315:.\Generated_Source\PSoC5/I2C_LCD.c ****                 break;
 316:.\Generated_Source\PSoC5/I2C_LCD.c ****         }        
 317:.\Generated_Source\PSoC5/I2C_LCD.c ****     #endif /* (I2C_LCD_LENGTH_2_BYTES == I2C_LCD_SET_POS_DATA_LEN) */
ARM GAS  C:\Users\robert\AppData\Local\Temp\ccN28sHs.s 			page 7


 318:.\Generated_Source\PSoC5/I2C_LCD.c **** 
 319:.\Generated_Source\PSoC5/I2C_LCD.c ****     /* Send data to LCD and wait when transaction complete */
 320:.\Generated_Source\PSoC5/I2C_LCD.c ****     I2C_LCD_SendSequence();
 321:.\Generated_Source\PSoC5/I2C_LCD.c **** }
 322:.\Generated_Source\PSoC5/I2C_LCD.c **** 
 323:.\Generated_Source\PSoC5/I2C_LCD.c **** 
 324:.\Generated_Source\PSoC5/I2C_LCD.c **** /*******************************************************************************
 325:.\Generated_Source\PSoC5/I2C_LCD.c **** *  Function Name: I2C_LCD_WriteData
 326:.\Generated_Source\PSoC5/I2C_LCD.c **** ********************************************************************************
 327:.\Generated_Source\PSoC5/I2C_LCD.c **** *
 328:.\Generated_Source\PSoC5/I2C_LCD.c **** * Summary:
 329:.\Generated_Source\PSoC5/I2C_LCD.c **** *  Writes data to the LCD RAM in the current position. Upon write completion,
 330:.\Generated_Source\PSoC5/I2C_LCD.c **** *  the position is incremented or decremented depending on the entry mode
 331:.\Generated_Source\PSoC5/I2C_LCD.c **** *  specified.
 332:.\Generated_Source\PSoC5/I2C_LCD.c **** *
 333:.\Generated_Source\PSoC5/I2C_LCD.c **** * Parameters:
 334:.\Generated_Source\PSoC5/I2C_LCD.c **** *  dByte:  The byte to be written to the LCD module.
 335:.\Generated_Source\PSoC5/I2C_LCD.c **** *
 336:.\Generated_Source\PSoC5/I2C_LCD.c **** * Return:
 337:.\Generated_Source\PSoC5/I2C_LCD.c **** *  None.
 338:.\Generated_Source\PSoC5/I2C_LCD.c **** *
 339:.\Generated_Source\PSoC5/I2C_LCD.c **** * Reentrant:
 340:.\Generated_Source\PSoC5/I2C_LCD.c **** *  No
 341:.\Generated_Source\PSoC5/I2C_LCD.c **** *
 342:.\Generated_Source\PSoC5/I2C_LCD.c **** *******************************************************************************/
 343:.\Generated_Source\PSoC5/I2C_LCD.c **** void I2C_LCD_WriteData(uint8 dByte) 
 344:.\Generated_Source\PSoC5/I2C_LCD.c **** {
 345:.\Generated_Source\PSoC5/I2C_LCD.c ****     /* Send required control byte value to address data register */
 346:.\Generated_Source\PSoC5/I2C_LCD.c ****     I2C_LCD_WrCntrlPatt(I2C_LCD_WRITE_DATA_IDX);
 347:.\Generated_Source\PSoC5/I2C_LCD.c **** 
 348:.\Generated_Source\PSoC5/I2C_LCD.c ****     /* Add byte of data to buffer */
 349:.\Generated_Source\PSoC5/I2C_LCD.c ****     I2C_LCD_WrDataToBuff(dByte);
 350:.\Generated_Source\PSoC5/I2C_LCD.c **** 
 351:.\Generated_Source\PSoC5/I2C_LCD.c ****     /* Send data to LCD and wait when transaction complete */
 352:.\Generated_Source\PSoC5/I2C_LCD.c ****     I2C_LCD_SendSequence();
 353:.\Generated_Source\PSoC5/I2C_LCD.c **** }
 354:.\Generated_Source\PSoC5/I2C_LCD.c **** 
 355:.\Generated_Source\PSoC5/I2C_LCD.c **** 
 356:.\Generated_Source\PSoC5/I2C_LCD.c **** /*******************************************************************************
 357:.\Generated_Source\PSoC5/I2C_LCD.c **** *  Function Name: I2C_LCD_WrDataToBuff
 358:.\Generated_Source\PSoC5/I2C_LCD.c **** ********************************************************************************
 359:.\Generated_Source\PSoC5/I2C_LCD.c **** *
 360:.\Generated_Source\PSoC5/I2C_LCD.c **** * Summary:
 361:.\Generated_Source\PSoC5/I2C_LCD.c **** *  Writes a byte of data to the display buffer.
 362:.\Generated_Source\PSoC5/I2C_LCD.c **** *
 363:.\Generated_Source\PSoC5/I2C_LCD.c **** * Parameters:
 364:.\Generated_Source\PSoC5/I2C_LCD.c **** *  nibble:  the byte containing nibble in least significant nibble to be written
 365:.\Generated_Source\PSoC5/I2C_LCD.c **** *           to the LCD module.
 366:.\Generated_Source\PSoC5/I2C_LCD.c **** *
 367:.\Generated_Source\PSoC5/I2C_LCD.c **** * Return:
 368:.\Generated_Source\PSoC5/I2C_LCD.c **** *  None
 369:.\Generated_Source\PSoC5/I2C_LCD.c **** *
 370:.\Generated_Source\PSoC5/I2C_LCD.c **** * Reentrant:
 371:.\Generated_Source\PSoC5/I2C_LCD.c **** *  No
 372:.\Generated_Source\PSoC5/I2C_LCD.c **** *
 373:.\Generated_Source\PSoC5/I2C_LCD.c **** *******************************************************************************/
 374:.\Generated_Source\PSoC5/I2C_LCD.c **** static void I2C_LCD_WrDataToBuff(uint8 dByte) CYREENTRANT
ARM GAS  C:\Users\robert\AppData\Local\Temp\ccN28sHs.s 			page 8


 375:.\Generated_Source\PSoC5/I2C_LCD.c **** {
  26              		.loc 1 375 0
  27              		.cfi_startproc
  28              		@ args = 0, pretend = 0, frame = 0
  29              		@ frame_needed = 0, uses_anonymous_args = 0
  30              		@ link register save eliminated.
  31              	.LVL0:
 376:.\Generated_Source\PSoC5/I2C_LCD.c ****     /* Put one byte of data to buffer at location of I2C_LCD_buffIndex */
 377:.\Generated_Source\PSoC5/I2C_LCD.c ****     I2C_LCD_buff[I2C_LCD_buffIndex] = dByte;
  32              		.loc 1 377 0
  33 0000 034A     		ldr	r2, .L2
  34 0002 1378     		ldrb	r3, [r2]	@ zero_extendqisi2
  35 0004 D118     		adds	r1, r2, r3
  36 0006 0871     		strb	r0, [r1, #4]
 378:.\Generated_Source\PSoC5/I2C_LCD.c ****     /* Increment I2C_LCD_buffIndex to point to next free position */
 379:.\Generated_Source\PSoC5/I2C_LCD.c ****     I2C_LCD_buffIndex++;
  37              		.loc 1 379 0
  38 0008 0133     		adds	r3, r3, #1
  39 000a 1370     		strb	r3, [r2]
  40 000c 7047     		bx	lr
  41              	.L3:
  42 000e 00BF     		.align	2
  43              	.L2:
  44 0010 00000000 		.word	.LANCHOR0
  45              		.cfi_endproc
  46              	.LFE6:
  47              		.size	I2C_LCD_WrDataToBuff, .-I2C_LCD_WrDataToBuff
  48              		.section	.text.I2C_LCD_WrCntrlPatt,"ax",%progbits
  49              		.align	2
  50              		.thumb
  51              		.thumb_func
  52              		.type	I2C_LCD_WrCntrlPatt, %function
  53              	I2C_LCD_WrCntrlPatt:
  54              	.LFB8:
 380:.\Generated_Source\PSoC5/I2C_LCD.c **** }
 381:.\Generated_Source\PSoC5/I2C_LCD.c **** 
 382:.\Generated_Source\PSoC5/I2C_LCD.c **** 
 383:.\Generated_Source\PSoC5/I2C_LCD.c **** /*******************************************************************************
 384:.\Generated_Source\PSoC5/I2C_LCD.c **** *  Function Name: I2C_LCD_WriteControl
 385:.\Generated_Source\PSoC5/I2C_LCD.c **** ********************************************************************************
 386:.\Generated_Source\PSoC5/I2C_LCD.c **** *
 387:.\Generated_Source\PSoC5/I2C_LCD.c **** * Summary:
 388:.\Generated_Source\PSoC5/I2C_LCD.c **** *  Writes a command byte to the LCD module. Different LCD models can have their
 389:.\Generated_Source\PSoC5/I2C_LCD.c **** *  own commands. Review the specific LCD datasheet for commands valid for that
 390:.\Generated_Source\PSoC5/I2C_LCD.c **** *  model.
 391:.\Generated_Source\PSoC5/I2C_LCD.c **** *
 392:.\Generated_Source\PSoC5/I2C_LCD.c **** * Parameters:
 393:.\Generated_Source\PSoC5/I2C_LCD.c **** *  cByte:   An 8-bit value representing the command to be loaded into the command
 394:.\Generated_Source\PSoC5/I2C_LCD.c **** *  register of the LCD module. Valid command parameters are specified in the
 395:.\Generated_Source\PSoC5/I2C_LCD.c **** *  table below:
 396:.\Generated_Source\PSoC5/I2C_LCD.c **** *   I2C_LCD_CLEAR_DISPLAY          Clear display.
 397:.\Generated_Source\PSoC5/I2C_LCD.c **** *   I2C_LCD_CURSOR_HOME            Return cursor and LCD to home
 398:.\Generated_Source\PSoC5/I2C_LCD.c **** *                                           position.
 399:.\Generated_Source\PSoC5/I2C_LCD.c **** *   I2C_LCD_SET_CURSOR_POSITION    Set position of cursor.
 400:.\Generated_Source\PSoC5/I2C_LCD.c **** *   I2C_LCD_DISPLAY_CURSOR_OFF     Disable display and cursor.
 401:.\Generated_Source\PSoC5/I2C_LCD.c **** *   I2C_LCD_DISPLAY_CURSOR_ON      Enable display and cursor.
 402:.\Generated_Source\PSoC5/I2C_LCD.c **** *   I2C_LCD_DISPLAY_ON_CURSOR_OFF
ARM GAS  C:\Users\robert\AppData\Local\Temp\ccN28sHs.s 			page 9


 403:.\Generated_Source\PSoC5/I2C_LCD.c **** *   I2C_LCD_DISPLAY_ON             Enable display, cursor off.
 404:.\Generated_Source\PSoC5/I2C_LCD.c **** *   I2C_LCD_CURSOR_BLINKING_ON     Enable display, cursor on, set
 405:.\Generated_Source\PSoC5/I2C_LCD.c **** *                                           cursor blink.
 406:.\Generated_Source\PSoC5/I2C_LCD.c **** *   I2C_LCD_CURSOR_BLINKING_OFF    Enable display, cursor on, cursor
 407:.\Generated_Source\PSoC5/I2C_LCD.c **** *                                           blinking off.
 408:.\Generated_Source\PSoC5/I2C_LCD.c **** *   I2C_LCD_SET_CGRAM_ADDR         Set position to the specific
 409:.\Generated_Source\PSoC5/I2C_LCD.c **** *                                           address in CGRAM (used for loading
 410:.\Generated_Source\PSoC5/I2C_LCD.c **** *                                           custom characters).
 411:.\Generated_Source\PSoC5/I2C_LCD.c **** *   I2C_LCD_CURSOR_AUTO_INCR_ON    Enable auto increment of cursor
 412:.\Generated_Source\PSoC5/I2C_LCD.c **** *                                           position.
 413:.\Generated_Source\PSoC5/I2C_LCD.c **** *   I2C_LCD_DISPLAY_2_LINES_16     Set display to be 2 lines 16
 414:.\Generated_Source\PSoC5/I2C_LCD.c **** *                                           characters.
 415:.\Generated_Source\PSoC5/I2C_LCD.c **** *
 416:.\Generated_Source\PSoC5/I2C_LCD.c **** * Return:
 417:.\Generated_Source\PSoC5/I2C_LCD.c **** *  None
 418:.\Generated_Source\PSoC5/I2C_LCD.c **** *
 419:.\Generated_Source\PSoC5/I2C_LCD.c **** * Reentrant:
 420:.\Generated_Source\PSoC5/I2C_LCD.c **** *  No
 421:.\Generated_Source\PSoC5/I2C_LCD.c **** *
 422:.\Generated_Source\PSoC5/I2C_LCD.c **** *******************************************************************************/
 423:.\Generated_Source\PSoC5/I2C_LCD.c **** void I2C_LCD_WriteControl(uint8 cByte) 
 424:.\Generated_Source\PSoC5/I2C_LCD.c **** {
 425:.\Generated_Source\PSoC5/I2C_LCD.c ****     uint8 cmdIndx = 0u;
 426:.\Generated_Source\PSoC5/I2C_LCD.c ****     
 427:.\Generated_Source\PSoC5/I2C_LCD.c ****     while(cmdIndx < I2C_LCD_NUM_COMMANDS)
 428:.\Generated_Source\PSoC5/I2C_LCD.c ****     {   
 429:.\Generated_Source\PSoC5/I2C_LCD.c ****         if (cByte == I2C_LCD_cmdPatt[cmdIndx][I2C_LCD_COMMAND_BYTE_INDEX])
 430:.\Generated_Source\PSoC5/I2C_LCD.c ****         {
 431:.\Generated_Source\PSoC5/I2C_LCD.c ****             /* Fill control pattern based on found index */
 432:.\Generated_Source\PSoC5/I2C_LCD.c ****             I2C_LCD_WrCntrlPatt(cmdIndx);
 433:.\Generated_Source\PSoC5/I2C_LCD.c **** 
 434:.\Generated_Source\PSoC5/I2C_LCD.c ****             /* Send data to LCD and wait when transaction complete */
 435:.\Generated_Source\PSoC5/I2C_LCD.c ****             I2C_LCD_SendSequence();
 436:.\Generated_Source\PSoC5/I2C_LCD.c **** 
 437:.\Generated_Source\PSoC5/I2C_LCD.c ****             /* Following commands require 1.5 ms delay to execute */
 438:.\Generated_Source\PSoC5/I2C_LCD.c ****             switch(cByte)
 439:.\Generated_Source\PSoC5/I2C_LCD.c ****             {
 440:.\Generated_Source\PSoC5/I2C_LCD.c ****                 case I2C_LCD_CLEAR_DISPLAY :
 441:.\Generated_Source\PSoC5/I2C_LCD.c ****                 case I2C_LCD_CURSOR_HOME :
 442:.\Generated_Source\PSoC5/I2C_LCD.c ****                 case I2C_LCD_DISPLAY_CURSOR_ON :
 443:.\Generated_Source\PSoC5/I2C_LCD.c ****                 case I2C_LCD_DISPLAY_CURSOR_OFF :
 444:.\Generated_Source\PSoC5/I2C_LCD.c ****                     CyDelayUs(I2C_LCD_CMOMMAND_DELAY);
 445:.\Generated_Source\PSoC5/I2C_LCD.c ****                     break;
 446:.\Generated_Source\PSoC5/I2C_LCD.c ****                 default:
 447:.\Generated_Source\PSoC5/I2C_LCD.c ****                     break;
 448:.\Generated_Source\PSoC5/I2C_LCD.c ****             }
 449:.\Generated_Source\PSoC5/I2C_LCD.c ****             /* Command index was found - break while() loop */
 450:.\Generated_Source\PSoC5/I2C_LCD.c ****             break;
 451:.\Generated_Source\PSoC5/I2C_LCD.c ****         }
 452:.\Generated_Source\PSoC5/I2C_LCD.c ****         /* Increment command pattern index */
 453:.\Generated_Source\PSoC5/I2C_LCD.c ****         cmdIndx++;
 454:.\Generated_Source\PSoC5/I2C_LCD.c ****     } 
 455:.\Generated_Source\PSoC5/I2C_LCD.c **** }
 456:.\Generated_Source\PSoC5/I2C_LCD.c **** 
 457:.\Generated_Source\PSoC5/I2C_LCD.c **** 
 458:.\Generated_Source\PSoC5/I2C_LCD.c **** /*******************************************************************************
 459:.\Generated_Source\PSoC5/I2C_LCD.c **** *  Function Name: I2C_LCD_WrCntrlPatt
ARM GAS  C:\Users\robert\AppData\Local\Temp\ccN28sHs.s 			page 10


 460:.\Generated_Source\PSoC5/I2C_LCD.c **** ********************************************************************************
 461:.\Generated_Source\PSoC5/I2C_LCD.c **** *
 462:.\Generated_Source\PSoC5/I2C_LCD.c **** * Summary:
 463:.\Generated_Source\PSoC5/I2C_LCD.c **** *  Writes a control pattern to the buffer that will be later send to the LCD
 464:.\Generated_Source\PSoC5/I2C_LCD.c **** *  module.
 465:.\Generated_Source\PSoC5/I2C_LCD.c **** *
 466:.\Generated_Source\PSoC5/I2C_LCD.c **** * Parameters:
 467:.\Generated_Source\PSoC5/I2C_LCD.c **** *  cmdIndex: Index of the command pattern in the look-up array.
 468:.\Generated_Source\PSoC5/I2C_LCD.c **** *
 469:.\Generated_Source\PSoC5/I2C_LCD.c **** * Return:
 470:.\Generated_Source\PSoC5/I2C_LCD.c **** *  None
 471:.\Generated_Source\PSoC5/I2C_LCD.c **** *
 472:.\Generated_Source\PSoC5/I2C_LCD.c **** * Reentrant:
 473:.\Generated_Source\PSoC5/I2C_LCD.c **** *  No
 474:.\Generated_Source\PSoC5/I2C_LCD.c **** *
 475:.\Generated_Source\PSoC5/I2C_LCD.c **** *******************************************************************************/
 476:.\Generated_Source\PSoC5/I2C_LCD.c **** static void I2C_LCD_WrCntrlPatt(uint8 cmdIndex) CYREENTRANT
 477:.\Generated_Source\PSoC5/I2C_LCD.c **** {
  55              		.loc 1 477 0
  56              		.cfi_startproc
  57              		@ args = 0, pretend = 0, frame = 0
  58              		@ frame_needed = 0, uses_anonymous_args = 0
  59              		@ link register save eliminated.
  60              	.LVL1:
 478:.\Generated_Source\PSoC5/I2C_LCD.c ****     /* Need to have index 'i' of different size to avoid MISRA
 479:.\Generated_Source\PSoC5/I2C_LCD.c ****     * warning when SCB based I2C Master is used. 
 480:.\Generated_Source\PSoC5/I2C_LCD.c ****     */
 481:.\Generated_Source\PSoC5/I2C_LCD.c ****     #if(I2C_LCD_IS_SCB_MASTER_USED)
 482:.\Generated_Source\PSoC5/I2C_LCD.c ****         uint32 i;
 483:.\Generated_Source\PSoC5/I2C_LCD.c ****     #else
 484:.\Generated_Source\PSoC5/I2C_LCD.c ****         uint8 i;
 485:.\Generated_Source\PSoC5/I2C_LCD.c ****     #endif /* (I2C_LCD_IS_SCB_MASTER_USED) */
 486:.\Generated_Source\PSoC5/I2C_LCD.c **** 
 487:.\Generated_Source\PSoC5/I2C_LCD.c ****     /* Fill buffer with command pattern */
 488:.\Generated_Source\PSoC5/I2C_LCD.c ****     for(i = 1u; i <= I2C_LCD_cmdPatt[cmdIndex][0u]; i++)
  61              		.loc 1 488 0
  62 0000 0123     		movs	r3, #1
  63 0002 09E0     		b	.L5
  64              	.LVL2:
  65              	.L6:
 489:.\Generated_Source\PSoC5/I2C_LCD.c ****     {
 490:.\Generated_Source\PSoC5/I2C_LCD.c ****         I2C_LCD_buff[i - 1u] =  I2C_LCD_cmdPatt[cmdIndex][i];
  66              		.loc 1 490 0 discriminator 3
  67 0004 00EB4002 		add	r2, r0, r0, lsl #1
  68 0008 1A44     		add	r2, r2, r3
  69 000a 0849     		ldr	r1, .L7
  70 000c 895C     		ldrb	r1, [r1, r2]	@ zero_extendqisi2
  71 000e 084A     		ldr	r2, .L7+4
  72 0010 1A44     		add	r2, r2, r3
  73 0012 1171     		strb	r1, [r2, #4]
 488:.\Generated_Source\PSoC5/I2C_LCD.c ****     {
  74              		.loc 1 488 0 discriminator 3
  75 0014 0133     		adds	r3, r3, #1
  76              	.LVL3:
  77 0016 DBB2     		uxtb	r3, r3
  78              	.LVL4:
  79              	.L5:
ARM GAS  C:\Users\robert\AppData\Local\Temp\ccN28sHs.s 			page 11


 488:.\Generated_Source\PSoC5/I2C_LCD.c ****     {
  80              		.loc 1 488 0 is_stmt 0 discriminator 1
  81 0018 00EB4002 		add	r2, r0, r0, lsl #1
  82 001c 0349     		ldr	r1, .L7
  83 001e 8A5C     		ldrb	r2, [r1, r2]	@ zero_extendqisi2
  84 0020 9A42     		cmp	r2, r3
  85 0022 EFD2     		bcs	.L6
 491:.\Generated_Source\PSoC5/I2C_LCD.c ****     }
 492:.\Generated_Source\PSoC5/I2C_LCD.c **** 
 493:.\Generated_Source\PSoC5/I2C_LCD.c ****     /* Set index to point on next free position in buffer */
 494:.\Generated_Source\PSoC5/I2C_LCD.c ****     I2C_LCD_buffIndex = i - 1u;
  86              		.loc 1 494 0 is_stmt 1
  87 0024 013B     		subs	r3, r3, #1
  88              	.LVL5:
  89 0026 034A     		ldr	r2, .L7+8
  90 0028 1370     		strb	r3, [r2]
  91 002a 7047     		bx	lr
  92              	.L8:
  93              		.align	2
  94              	.L7:
  95 002c 00000000 		.word	.LANCHOR1
  96 0030 FFFFFFFF 		.word	.LANCHOR0-1
  97 0034 00000000 		.word	.LANCHOR0
  98              		.cfi_endproc
  99              	.LFE8:
 100              		.size	I2C_LCD_WrCntrlPatt, .-I2C_LCD_WrCntrlPatt
 101              		.section	.text.I2C_LCD_SendSequence,"ax",%progbits
 102              		.align	2
 103              		.thumb
 104              		.thumb_func
 105              		.type	I2C_LCD_SendSequence, %function
 106              	I2C_LCD_SendSequence:
 107              	.LFB9:
 495:.\Generated_Source\PSoC5/I2C_LCD.c **** }
 496:.\Generated_Source\PSoC5/I2C_LCD.c **** 
 497:.\Generated_Source\PSoC5/I2C_LCD.c **** 
 498:.\Generated_Source\PSoC5/I2C_LCD.c **** /*******************************************************************************
 499:.\Generated_Source\PSoC5/I2C_LCD.c **** *  Function Name: I2C_LCD_SendSequence
 500:.\Generated_Source\PSoC5/I2C_LCD.c **** ********************************************************************************
 501:.\Generated_Source\PSoC5/I2C_LCD.c **** *
 502:.\Generated_Source\PSoC5/I2C_LCD.c **** * Summary:
 503:.\Generated_Source\PSoC5/I2C_LCD.c **** *  Sends the content of the buffer to the LCD module and waits while transaction
 504:.\Generated_Source\PSoC5/I2C_LCD.c **** *  completes. In the end resets index to point to the start of the buffer.
 505:.\Generated_Source\PSoC5/I2C_LCD.c **** *
 506:.\Generated_Source\PSoC5/I2C_LCD.c **** * Parameters:
 507:.\Generated_Source\PSoC5/I2C_LCD.c **** *  None
 508:.\Generated_Source\PSoC5/I2C_LCD.c **** *
 509:.\Generated_Source\PSoC5/I2C_LCD.c **** * Return:
 510:.\Generated_Source\PSoC5/I2C_LCD.c **** *  None
 511:.\Generated_Source\PSoC5/I2C_LCD.c **** *
 512:.\Generated_Source\PSoC5/I2C_LCD.c **** * Reentrant:
 513:.\Generated_Source\PSoC5/I2C_LCD.c **** *  No
 514:.\Generated_Source\PSoC5/I2C_LCD.c **** *
 515:.\Generated_Source\PSoC5/I2C_LCD.c **** *******************************************************************************/
 516:.\Generated_Source\PSoC5/I2C_LCD.c **** static void I2C_LCD_SendSequence(void) CYREENTRANT
 517:.\Generated_Source\PSoC5/I2C_LCD.c **** {
 108              		.loc 1 517 0
ARM GAS  C:\Users\robert\AppData\Local\Temp\ccN28sHs.s 			page 12


 109              		.cfi_startproc
 110              		@ args = 0, pretend = 0, frame = 0
 111              		@ frame_needed = 0, uses_anonymous_args = 0
 112 0000 08B5     		push	{r3, lr}
 113              		.cfi_def_cfa_offset 8
 114              		.cfi_offset 3, -8
 115              		.cfi_offset 14, -4
 518:.\Generated_Source\PSoC5/I2C_LCD.c ****     /* Send command pattern to LCD */
 519:.\Generated_Source\PSoC5/I2C_LCD.c ****     (void) I2C_LCD_MasterWriteBuf(I2C_LCD_address,
 116              		.loc 1 519 0
 117 0002 084B     		ldr	r3, .L12
 118 0004 084A     		ldr	r2, .L12+4
 119 0006 1078     		ldrb	r0, [r2]	@ zero_extendqisi2
 120 0008 191D     		adds	r1, r3, #4
 121 000a 1A78     		ldrb	r2, [r3]	@ zero_extendqisi2
 122 000c 0023     		movs	r3, #0
 123 000e FFF7FEFF 		bl	I2C_M_MasterWriteBuf
 124              	.LVL6:
 125              	.L10:
 520:.\Generated_Source\PSoC5/I2C_LCD.c ****                                            I2C_LCD_buff,
 521:.\Generated_Source\PSoC5/I2C_LCD.c ****                                            I2C_LCD_buffIndex,
 522:.\Generated_Source\PSoC5/I2C_LCD.c ****                                            I2C_LCD_MODE_COMPLETE_XFER);
 523:.\Generated_Source\PSoC5/I2C_LCD.c **** 
 524:.\Generated_Source\PSoC5/I2C_LCD.c ****     while(0u == (I2C_LCD_MasterReadStatus() & I2C_LCD_WRITE_COMPLETE))
 126              		.loc 1 524 0 discriminator 1
 127 0012 FFF7FEFF 		bl	I2C_M_MasterStatus
 128              	.LVL7:
 129 0016 10F0020F 		tst	r0, #2
 130 001a FAD0     		beq	.L10
 525:.\Generated_Source\PSoC5/I2C_LCD.c ****     {
 526:.\Generated_Source\PSoC5/I2C_LCD.c ****         /* Wait until I2C Master finishes transaction */
 527:.\Generated_Source\PSoC5/I2C_LCD.c ****     }
 528:.\Generated_Source\PSoC5/I2C_LCD.c **** 
 529:.\Generated_Source\PSoC5/I2C_LCD.c ****     /* Reset buffer index */
 530:.\Generated_Source\PSoC5/I2C_LCD.c ****     I2C_LCD_buffIndex = 0u;
 131              		.loc 1 530 0
 132 001c 0022     		movs	r2, #0
 133 001e 014B     		ldr	r3, .L12
 134 0020 1A70     		strb	r2, [r3]
 135 0022 08BD     		pop	{r3, pc}
 136              	.L13:
 137              		.align	2
 138              	.L12:
 139 0024 00000000 		.word	.LANCHOR0
 140 0028 00000000 		.word	.LANCHOR2
 141              		.cfi_endproc
 142              	.LFE9:
 143              		.size	I2C_LCD_SendSequence, .-I2C_LCD_SendSequence
 144              		.section	.text.I2C_LCD_SendCmd,"ax",%progbits
 145              		.align	2
 146              		.thumb
 147              		.thumb_func
 148              		.type	I2C_LCD_SendCmd, %function
 149              	I2C_LCD_SendCmd:
 150              	.LFB19:
 531:.\Generated_Source\PSoC5/I2C_LCD.c **** }
 532:.\Generated_Source\PSoC5/I2C_LCD.c **** 
ARM GAS  C:\Users\robert\AppData\Local\Temp\ccN28sHs.s 			page 13


 533:.\Generated_Source\PSoC5/I2C_LCD.c **** 
 534:.\Generated_Source\PSoC5/I2C_LCD.c **** /*******************************************************************************
 535:.\Generated_Source\PSoC5/I2C_LCD.c **** * Function Name: I2C_LCD_HandleCustomCommand
 536:.\Generated_Source\PSoC5/I2C_LCD.c **** ********************************************************************************
 537:.\Generated_Source\PSoC5/I2C_LCD.c **** *
 538:.\Generated_Source\PSoC5/I2C_LCD.c **** * Summary:
 539:.\Generated_Source\PSoC5/I2C_LCD.c **** *  This command adds a support of sending custom commands with parameters.
 540:.\Generated_Source\PSoC5/I2C_LCD.c **** *
 541:.\Generated_Source\PSoC5/I2C_LCD.c **** * Parameters:
 542:.\Generated_Source\PSoC5/I2C_LCD.c **** *  uint8 cmdId: Command code.
 543:.\Generated_Source\PSoC5/I2C_LCD.c **** *  uint8 dataLength: The length of data to be send for this command.
 544:.\Generated_Source\PSoC5/I2C_LCD.c **** *  uint8 cmdData[]: The data to be send to I2C LCD.
 545:.\Generated_Source\PSoC5/I2C_LCD.c **** *
 546:.\Generated_Source\PSoC5/I2C_LCD.c **** * Return:
 547:.\Generated_Source\PSoC5/I2C_LCD.c **** *  None
 548:.\Generated_Source\PSoC5/I2C_LCD.c **** *
 549:.\Generated_Source\PSoC5/I2C_LCD.c **** * Reentrant:
 550:.\Generated_Source\PSoC5/I2C_LCD.c **** *  No
 551:.\Generated_Source\PSoC5/I2C_LCD.c **** *
 552:.\Generated_Source\PSoC5/I2C_LCD.c **** *******************************************************************************/
 553:.\Generated_Source\PSoC5/I2C_LCD.c **** void I2C_LCD_HandleCustomCommand(uint8 cmdId, uint8 dataLength, uint8 const cmdData[])
 554:.\Generated_Source\PSoC5/I2C_LCD.c ****                                                         
 555:.\Generated_Source\PSoC5/I2C_LCD.c **** {
 556:.\Generated_Source\PSoC5/I2C_LCD.c ****     uint8 i;
 557:.\Generated_Source\PSoC5/I2C_LCD.c ****     uint8 ch;
 558:.\Generated_Source\PSoC5/I2C_LCD.c ****     uint8 cmdIndx = 0u;
 559:.\Generated_Source\PSoC5/I2C_LCD.c ****     
 560:.\Generated_Source\PSoC5/I2C_LCD.c ****     while(cmdIndx < I2C_LCD_NUM_COMMANDS)
 561:.\Generated_Source\PSoC5/I2C_LCD.c ****     {   
 562:.\Generated_Source\PSoC5/I2C_LCD.c ****         if (cmdId == I2C_LCD_cmdPatt[cmdIndx][I2C_LCD_COMMAND_BYTE_INDEX])
 563:.\Generated_Source\PSoC5/I2C_LCD.c ****         {
 564:.\Generated_Source\PSoC5/I2C_LCD.c ****              /* Write control pattern for specific command */
 565:.\Generated_Source\PSoC5/I2C_LCD.c ****             I2C_LCD_WrCntrlPatt(cmdIndx);
 566:.\Generated_Source\PSoC5/I2C_LCD.c **** 
 567:.\Generated_Source\PSoC5/I2C_LCD.c ****             for(i = 0u; i < dataLength; i++)
 568:.\Generated_Source\PSoC5/I2C_LCD.c ****             {
 569:.\Generated_Source\PSoC5/I2C_LCD.c ****                 /* Get next byte from array of data */
 570:.\Generated_Source\PSoC5/I2C_LCD.c ****                 ch = cmdData[i];
 571:.\Generated_Source\PSoC5/I2C_LCD.c **** 
 572:.\Generated_Source\PSoC5/I2C_LCD.c ****                 /* Add current byte to buffer */
 573:.\Generated_Source\PSoC5/I2C_LCD.c ****                 I2C_LCD_WrDataToBuff((uint8) ch);
 574:.\Generated_Source\PSoC5/I2C_LCD.c ****             }
 575:.\Generated_Source\PSoC5/I2C_LCD.c **** 
 576:.\Generated_Source\PSoC5/I2C_LCD.c ****             /* Send data to LCD and wait when transaction completes */
 577:.\Generated_Source\PSoC5/I2C_LCD.c ****             I2C_LCD_SendSequence();
 578:.\Generated_Source\PSoC5/I2C_LCD.c ****             /* The command index was found - break while() loop */
 579:.\Generated_Source\PSoC5/I2C_LCD.c ****             break;
 580:.\Generated_Source\PSoC5/I2C_LCD.c ****         }
 581:.\Generated_Source\PSoC5/I2C_LCD.c ****         /* Increment command pattern index */
 582:.\Generated_Source\PSoC5/I2C_LCD.c ****         cmdIndx++;
 583:.\Generated_Source\PSoC5/I2C_LCD.c ****     } 
 584:.\Generated_Source\PSoC5/I2C_LCD.c **** }
 585:.\Generated_Source\PSoC5/I2C_LCD.c **** 
 586:.\Generated_Source\PSoC5/I2C_LCD.c **** 
 587:.\Generated_Source\PSoC5/I2C_LCD.c **** /*******************************************************************************
 588:.\Generated_Source\PSoC5/I2C_LCD.c **** * Function Name: I2C_LCD_HandleOneByteCommand
 589:.\Generated_Source\PSoC5/I2C_LCD.c **** ********************************************************************************
ARM GAS  C:\Users\robert\AppData\Local\Temp\ccN28sHs.s 			page 14


 590:.\Generated_Source\PSoC5/I2C_LCD.c **** *
 591:.\Generated_Source\PSoC5/I2C_LCD.c **** * Summary:
 592:.\Generated_Source\PSoC5/I2C_LCD.c **** *  This command adds a support of sending custom commands with 1 byte parameter.
 593:.\Generated_Source\PSoC5/I2C_LCD.c **** *
 594:.\Generated_Source\PSoC5/I2C_LCD.c **** * Parameters:
 595:.\Generated_Source\PSoC5/I2C_LCD.c **** *  uint8 cmdId: Command code.
 596:.\Generated_Source\PSoC5/I2C_LCD.c **** *  uint8 cmdByte: One byte of data to be send to I2C LCD.
 597:.\Generated_Source\PSoC5/I2C_LCD.c **** *
 598:.\Generated_Source\PSoC5/I2C_LCD.c **** * Return:
 599:.\Generated_Source\PSoC5/I2C_LCD.c **** *  None
 600:.\Generated_Source\PSoC5/I2C_LCD.c **** *
 601:.\Generated_Source\PSoC5/I2C_LCD.c **** * Reentrant:
 602:.\Generated_Source\PSoC5/I2C_LCD.c **** *  No
 603:.\Generated_Source\PSoC5/I2C_LCD.c **** *
 604:.\Generated_Source\PSoC5/I2C_LCD.c **** *******************************************************************************/
 605:.\Generated_Source\PSoC5/I2C_LCD.c **** void I2C_LCD_HandleOneByteCommand(uint8 cmdId, uint8 cmdByte)
 606:.\Generated_Source\PSoC5/I2C_LCD.c ****                                                         
 607:.\Generated_Source\PSoC5/I2C_LCD.c **** {
 608:.\Generated_Source\PSoC5/I2C_LCD.c ****     uint8 oneByteArray[I2C_LCD_ONE_BYTE_LEN];
 609:.\Generated_Source\PSoC5/I2C_LCD.c ****     
 610:.\Generated_Source\PSoC5/I2C_LCD.c ****     oneByteArray[0u] = cmdByte;
 611:.\Generated_Source\PSoC5/I2C_LCD.c ****     
 612:.\Generated_Source\PSoC5/I2C_LCD.c ****     I2C_LCD_HandleCustomCommand(cmdId, I2C_LCD_ONE_BYTE_LEN, oneByteArray);
 613:.\Generated_Source\PSoC5/I2C_LCD.c **** }
 614:.\Generated_Source\PSoC5/I2C_LCD.c **** 
 615:.\Generated_Source\PSoC5/I2C_LCD.c **** 
 616:.\Generated_Source\PSoC5/I2C_LCD.c **** /*******************************************************************************
 617:.\Generated_Source\PSoC5/I2C_LCD.c **** * Function Name: I2C_LCD_PrintString
 618:.\Generated_Source\PSoC5/I2C_LCD.c **** ********************************************************************************
 619:.\Generated_Source\PSoC5/I2C_LCD.c **** *
 620:.\Generated_Source\PSoC5/I2C_LCD.c **** * Summary:
 621:.\Generated_Source\PSoC5/I2C_LCD.c **** *  Write a null-terminated string of characters to the screen beginning at the
 622:.\Generated_Source\PSoC5/I2C_LCD.c **** *  current cursor location.
 623:.\Generated_Source\PSoC5/I2C_LCD.c **** *
 624:.\Generated_Source\PSoC5/I2C_LCD.c **** * Parameters:
 625:.\Generated_Source\PSoC5/I2C_LCD.c **** *  string:  Null-terminated array of ASCII characters to be displayed on the LCD
 626:.\Generated_Source\PSoC5/I2C_LCD.c **** *           module's screen.
 627:.\Generated_Source\PSoC5/I2C_LCD.c **** *
 628:.\Generated_Source\PSoC5/I2C_LCD.c **** * Return:
 629:.\Generated_Source\PSoC5/I2C_LCD.c **** *  None
 630:.\Generated_Source\PSoC5/I2C_LCD.c **** *
 631:.\Generated_Source\PSoC5/I2C_LCD.c **** * Reentrant:
 632:.\Generated_Source\PSoC5/I2C_LCD.c **** *  No
 633:.\Generated_Source\PSoC5/I2C_LCD.c **** *
 634:.\Generated_Source\PSoC5/I2C_LCD.c **** *******************************************************************************/
 635:.\Generated_Source\PSoC5/I2C_LCD.c **** void I2C_LCD_PrintString(char8 const string[]) 
 636:.\Generated_Source\PSoC5/I2C_LCD.c **** {
 637:.\Generated_Source\PSoC5/I2C_LCD.c ****     uint8 chIdx = 1u;
 638:.\Generated_Source\PSoC5/I2C_LCD.c ****     char8 current = *string;
 639:.\Generated_Source\PSoC5/I2C_LCD.c **** 
 640:.\Generated_Source\PSoC5/I2C_LCD.c ****     /* Send required control byte value to address data register */
 641:.\Generated_Source\PSoC5/I2C_LCD.c ****     I2C_LCD_WrCntrlPatt(I2C_LCD_WRITE_DATA_IDX);
 642:.\Generated_Source\PSoC5/I2C_LCD.c **** 
 643:.\Generated_Source\PSoC5/I2C_LCD.c ****     /* Until null is reached, put next character into buffer */
 644:.\Generated_Source\PSoC5/I2C_LCD.c ****     while((char8) '\0' != current)
 645:.\Generated_Source\PSoC5/I2C_LCD.c ****     {
 646:.\Generated_Source\PSoC5/I2C_LCD.c ****         /* Add current byte to buffer */
ARM GAS  C:\Users\robert\AppData\Local\Temp\ccN28sHs.s 			page 15


 647:.\Generated_Source\PSoC5/I2C_LCD.c ****         #if (I2C_LCD_COMMAND_FORMAT == I2C_LCD_NXP_PCF2119X)
 648:.\Generated_Source\PSoC5/I2C_LCD.c ****             /* In case of NXP PCF2119x, LCD modules use character set "S"
 649:.\Generated_Source\PSoC5/I2C_LCD.c ****             * (see LCD's module datasheet) that has English letters located in
 650:.\Generated_Source\PSoC5/I2C_LCD.c ****             * "extended" area (ASCII code > 128) so it is required to handle
 651:.\Generated_Source\PSoC5/I2C_LCD.c ****             * that. But the first eight generated character are exceptions.
 652:.\Generated_Source\PSoC5/I2C_LCD.c ****             */
 653:.\Generated_Source\PSoC5/I2C_LCD.c ****             if(((char8)(I2C_LCD_CUSTOM_CHAR_NUM)) > current)
 654:.\Generated_Source\PSoC5/I2C_LCD.c ****             {
 655:.\Generated_Source\PSoC5/I2C_LCD.c ****                 I2C_LCD_WrDataToBuff((uint8) current);
 656:.\Generated_Source\PSoC5/I2C_LCD.c ****             }
 657:.\Generated_Source\PSoC5/I2C_LCD.c ****             else
 658:.\Generated_Source\PSoC5/I2C_LCD.c ****             {
 659:.\Generated_Source\PSoC5/I2C_LCD.c ****                 I2C_LCD_WrDataToBuff(((uint8) current) ^ I2C_LCD_CHARACTER_SET_S_MASK);
 660:.\Generated_Source\PSoC5/I2C_LCD.c ****             }
 661:.\Generated_Source\PSoC5/I2C_LCD.c ****         #else
 662:.\Generated_Source\PSoC5/I2C_LCD.c ****             I2C_LCD_WrDataToBuff((uint8) current);
 663:.\Generated_Source\PSoC5/I2C_LCD.c ****         #endif /* ((I2C_LCD_COMMAND_FORMAT == I2C_LCD_NXP_PCF2119X) && \
 664:.\Generated_Source\PSoC5/I2C_LCD.c ****                * (I2C_LCD_CUSTOM_CHAR_SET != I2C_LCD_NONE))
 665:.\Generated_Source\PSoC5/I2C_LCD.c ****                */
 666:.\Generated_Source\PSoC5/I2C_LCD.c **** 
 667:.\Generated_Source\PSoC5/I2C_LCD.c ****         /* Get next byte from string */
 668:.\Generated_Source\PSoC5/I2C_LCD.c ****         current = string[chIdx];
 669:.\Generated_Source\PSoC5/I2C_LCD.c ****         chIdx++;
 670:.\Generated_Source\PSoC5/I2C_LCD.c ****     }
 671:.\Generated_Source\PSoC5/I2C_LCD.c **** 
 672:.\Generated_Source\PSoC5/I2C_LCD.c ****     /* Send data to LCD and wait when transaction completes */
 673:.\Generated_Source\PSoC5/I2C_LCD.c ****     I2C_LCD_SendSequence();
 674:.\Generated_Source\PSoC5/I2C_LCD.c **** }
 675:.\Generated_Source\PSoC5/I2C_LCD.c **** 
 676:.\Generated_Source\PSoC5/I2C_LCD.c **** 
 677:.\Generated_Source\PSoC5/I2C_LCD.c **** /*******************************************************************************
 678:.\Generated_Source\PSoC5/I2C_LCD.c **** *  Function Name: I2C_LCD_PutChar
 679:.\Generated_Source\PSoC5/I2C_LCD.c **** ********************************************************************************
 680:.\Generated_Source\PSoC5/I2C_LCD.c **** *
 681:.\Generated_Source\PSoC5/I2C_LCD.c **** * Summary:
 682:.\Generated_Source\PSoC5/I2C_LCD.c **** *  Writes an individual character to the screen at the current cursor location.
 683:.\Generated_Source\PSoC5/I2C_LCD.c **** *  Used to display custom characters through their named values.
 684:.\Generated_Source\PSoC5/I2C_LCD.c **** *  (I2C_LCD_CUSTOM_0 through I2C_LCD_CUSTOM_7).
 685:.\Generated_Source\PSoC5/I2C_LCD.c **** *
 686:.\Generated_Source\PSoC5/I2C_LCD.c **** * Parameters:
 687:.\Generated_Source\PSoC5/I2C_LCD.c **** *  character:  An ASCII character to be displayed on the LCD module's screen.
 688:.\Generated_Source\PSoC5/I2C_LCD.c **** *
 689:.\Generated_Source\PSoC5/I2C_LCD.c **** * Return:
 690:.\Generated_Source\PSoC5/I2C_LCD.c **** *  None
 691:.\Generated_Source\PSoC5/I2C_LCD.c **** *
 692:.\Generated_Source\PSoC5/I2C_LCD.c **** * Reentrant:
 693:.\Generated_Source\PSoC5/I2C_LCD.c **** *  No
 694:.\Generated_Source\PSoC5/I2C_LCD.c **** *
 695:.\Generated_Source\PSoC5/I2C_LCD.c **** *******************************************************************************/
 696:.\Generated_Source\PSoC5/I2C_LCD.c **** void I2C_LCD_PutChar(char8 character) 
 697:.\Generated_Source\PSoC5/I2C_LCD.c **** {
 698:.\Generated_Source\PSoC5/I2C_LCD.c ****     /* Send one byte of data with I2C_LCD_WriteData() */
 699:.\Generated_Source\PSoC5/I2C_LCD.c ****     #if (I2C_LCD_COMMAND_FORMAT == I2C_LCD_NXP_PCF2119X)
 700:.\Generated_Source\PSoC5/I2C_LCD.c ****         /* In case of NXP PCF2119x, the LCD modules use character set "S"
 701:.\Generated_Source\PSoC5/I2C_LCD.c ****         * (see LCD's module datasheet) that has English letters located in
 702:.\Generated_Source\PSoC5/I2C_LCD.c ****         * "extended" area (ASCII code > 128) so it is required to handle
 703:.\Generated_Source\PSoC5/I2C_LCD.c ****         * that. But the first eight generated character are exceptions.
ARM GAS  C:\Users\robert\AppData\Local\Temp\ccN28sHs.s 			page 16


 704:.\Generated_Source\PSoC5/I2C_LCD.c ****         */
 705:.\Generated_Source\PSoC5/I2C_LCD.c ****         if(((char8) (I2C_LCD_CUSTOM_CHAR_NUM)) >  character)
 706:.\Generated_Source\PSoC5/I2C_LCD.c ****         {
 707:.\Generated_Source\PSoC5/I2C_LCD.c ****             I2C_LCD_WriteData((uint8) character);
 708:.\Generated_Source\PSoC5/I2C_LCD.c ****         }
 709:.\Generated_Source\PSoC5/I2C_LCD.c ****         else
 710:.\Generated_Source\PSoC5/I2C_LCD.c ****         {
 711:.\Generated_Source\PSoC5/I2C_LCD.c ****             I2C_LCD_WriteData(((uint8) character) ^ I2C_LCD_CHARACTER_SET_S_MASK);
 712:.\Generated_Source\PSoC5/I2C_LCD.c ****         }
 713:.\Generated_Source\PSoC5/I2C_LCD.c ****     #else
 714:.\Generated_Source\PSoC5/I2C_LCD.c ****         I2C_LCD_WriteData((uint8) character);
 715:.\Generated_Source\PSoC5/I2C_LCD.c ****     #endif /* (I2C_LCD_COMMAND_FORMAT == I2C_LCD_NXP_PCF2119X) */
 716:.\Generated_Source\PSoC5/I2C_LCD.c **** }
 717:.\Generated_Source\PSoC5/I2C_LCD.c **** 
 718:.\Generated_Source\PSoC5/I2C_LCD.c **** 
 719:.\Generated_Source\PSoC5/I2C_LCD.c **** /*******************************************************************************
 720:.\Generated_Source\PSoC5/I2C_LCD.c **** *  Function Name: I2C_LCD_PrintInt8
 721:.\Generated_Source\PSoC5/I2C_LCD.c **** ********************************************************************************
 722:.\Generated_Source\PSoC5/I2C_LCD.c **** *
 723:.\Generated_Source\PSoC5/I2C_LCD.c **** * Summary:
 724:.\Generated_Source\PSoC5/I2C_LCD.c **** *  Print a byte as two ASCII characters.
 725:.\Generated_Source\PSoC5/I2C_LCD.c **** *
 726:.\Generated_Source\PSoC5/I2C_LCD.c **** * Parameters:
 727:.\Generated_Source\PSoC5/I2C_LCD.c **** *  value: The byte to be printed out as ASCII characters.
 728:.\Generated_Source\PSoC5/I2C_LCD.c **** *
 729:.\Generated_Source\PSoC5/I2C_LCD.c **** * Return:
 730:.\Generated_Source\PSoC5/I2C_LCD.c **** *  None
 731:.\Generated_Source\PSoC5/I2C_LCD.c **** *
 732:.\Generated_Source\PSoC5/I2C_LCD.c **** * Reentrant:
 733:.\Generated_Source\PSoC5/I2C_LCD.c **** *  No
 734:.\Generated_Source\PSoC5/I2C_LCD.c **** *
 735:.\Generated_Source\PSoC5/I2C_LCD.c **** *******************************************************************************/
 736:.\Generated_Source\PSoC5/I2C_LCD.c **** void I2C_LCD_PrintInt8(uint8 value) 
 737:.\Generated_Source\PSoC5/I2C_LCD.c **** {
 738:.\Generated_Source\PSoC5/I2C_LCD.c ****     static char8 const CYCODE I2C_LCD_hex[16u] = "0123456789ABCDEF";
 739:.\Generated_Source\PSoC5/I2C_LCD.c **** 
 740:.\Generated_Source\PSoC5/I2C_LCD.c ****     /* Send required control byte value to address data register */
 741:.\Generated_Source\PSoC5/I2C_LCD.c ****     I2C_LCD_WrCntrlPatt(I2C_LCD_WRITE_DATA_IDX);
 742:.\Generated_Source\PSoC5/I2C_LCD.c **** 
 743:.\Generated_Source\PSoC5/I2C_LCD.c ****     /* Add current byte to buffer */
 744:.\Generated_Source\PSoC5/I2C_LCD.c ****     #if (I2C_LCD_COMMAND_FORMAT == I2C_LCD_NXP_PCF2119X)
 745:.\Generated_Source\PSoC5/I2C_LCD.c ****         /* In case of NXP PCF2119x, LCD modules use character set "S"
 746:.\Generated_Source\PSoC5/I2C_LCD.c ****         * (see LCD's module datasheet) that has English letters located in
 747:.\Generated_Source\PSoC5/I2C_LCD.c ****         * "extended" area (ASCII code > 128) so it is required to handle
 748:.\Generated_Source\PSoC5/I2C_LCD.c ****         * that.
 749:.\Generated_Source\PSoC5/I2C_LCD.c ****         */
 750:.\Generated_Source\PSoC5/I2C_LCD.c ****         I2C_LCD_WrDataToBuff(((uint8) I2C_LCD_hex[value >> I2C_LCD_BYTE_UPPER_NIBBLE_SHIFT])
 751:.\Generated_Source\PSoC5/I2C_LCD.c ****                                                ^ I2C_LCD_CHARACTER_SET_S_MASK );
 752:.\Generated_Source\PSoC5/I2C_LCD.c ****         I2C_LCD_WrDataToBuff(((uint8) I2C_LCD_hex[value & I2C_LCD_BYTE_LOWER_NIBBLE_MASK]) ^
 753:.\Generated_Source\PSoC5/I2C_LCD.c ****                                                I2C_LCD_CHARACTER_SET_S_MASK);
 754:.\Generated_Source\PSoC5/I2C_LCD.c ****     #else
 755:.\Generated_Source\PSoC5/I2C_LCD.c ****         I2C_LCD_WrDataToBuff((uint8) I2C_LCD_hex[value >> I2C_LCD_BYTE_UPPER_NIBBLE_SHIFT]);
 756:.\Generated_Source\PSoC5/I2C_LCD.c ****         I2C_LCD_WrDataToBuff((uint8) I2C_LCD_hex[value & I2C_LCD_BYTE_LOWER_NIBBLE_MASK]);
 757:.\Generated_Source\PSoC5/I2C_LCD.c ****     #endif /* (I2C_LCD_COMMAND_FORMAT == I2C_LCD_NXP_PCF2119X) */
 758:.\Generated_Source\PSoC5/I2C_LCD.c **** 
 759:.\Generated_Source\PSoC5/I2C_LCD.c ****     /* Send data to LCD and wait when transaction complete */
 760:.\Generated_Source\PSoC5/I2C_LCD.c ****     I2C_LCD_SendSequence();
ARM GAS  C:\Users\robert\AppData\Local\Temp\ccN28sHs.s 			page 17


 761:.\Generated_Source\PSoC5/I2C_LCD.c **** }
 762:.\Generated_Source\PSoC5/I2C_LCD.c **** 
 763:.\Generated_Source\PSoC5/I2C_LCD.c **** 
 764:.\Generated_Source\PSoC5/I2C_LCD.c **** /*******************************************************************************
 765:.\Generated_Source\PSoC5/I2C_LCD.c **** *  Function Name: I2C_LCD_PrintInt16
 766:.\Generated_Source\PSoC5/I2C_LCD.c **** ********************************************************************************
 767:.\Generated_Source\PSoC5/I2C_LCD.c **** *
 768:.\Generated_Source\PSoC5/I2C_LCD.c **** * Summary:
 769:.\Generated_Source\PSoC5/I2C_LCD.c **** *  Print a uint16 as four ASCII characters.
 770:.\Generated_Source\PSoC5/I2C_LCD.c **** *
 771:.\Generated_Source\PSoC5/I2C_LCD.c **** * Parameters:
 772:.\Generated_Source\PSoC5/I2C_LCD.c **** *  value:   The uint16 to be printed out as ASCII characters.
 773:.\Generated_Source\PSoC5/I2C_LCD.c **** *
 774:.\Generated_Source\PSoC5/I2C_LCD.c **** * Return:
 775:.\Generated_Source\PSoC5/I2C_LCD.c **** *  None
 776:.\Generated_Source\PSoC5/I2C_LCD.c **** *
 777:.\Generated_Source\PSoC5/I2C_LCD.c **** * Reentrant:
 778:.\Generated_Source\PSoC5/I2C_LCD.c **** *  No
 779:.\Generated_Source\PSoC5/I2C_LCD.c **** *
 780:.\Generated_Source\PSoC5/I2C_LCD.c **** *******************************************************************************/
 781:.\Generated_Source\PSoC5/I2C_LCD.c **** void I2C_LCD_PrintInt16(uint16 value) 
 782:.\Generated_Source\PSoC5/I2C_LCD.c **** {
 783:.\Generated_Source\PSoC5/I2C_LCD.c ****     I2C_LCD_PrintInt8((uint8)(value >> I2C_LCD_U16_UPPER_BYTE_SHIFT));
 784:.\Generated_Source\PSoC5/I2C_LCD.c ****     I2C_LCD_PrintInt8((uint8)(value & I2C_LCD_U16_LOWER_BYTE_MASK));
 785:.\Generated_Source\PSoC5/I2C_LCD.c **** }
 786:.\Generated_Source\PSoC5/I2C_LCD.c **** 
 787:.\Generated_Source\PSoC5/I2C_LCD.c **** 
 788:.\Generated_Source\PSoC5/I2C_LCD.c **** /*******************************************************************************
 789:.\Generated_Source\PSoC5/I2C_LCD.c **** *  Function Name: I2C_LCD_PrintNumber
 790:.\Generated_Source\PSoC5/I2C_LCD.c **** ********************************************************************************
 791:.\Generated_Source\PSoC5/I2C_LCD.c **** *
 792:.\Generated_Source\PSoC5/I2C_LCD.c **** * Summary:
 793:.\Generated_Source\PSoC5/I2C_LCD.c **** *  Print a uint16 value as a left-justified decimal value.
 794:.\Generated_Source\PSoC5/I2C_LCD.c **** *
 795:.\Generated_Source\PSoC5/I2C_LCD.c **** * Parameters:
 796:.\Generated_Source\PSoC5/I2C_LCD.c **** *  value:  The byte to be printed out as ASCII characters.
 797:.\Generated_Source\PSoC5/I2C_LCD.c **** *
 798:.\Generated_Source\PSoC5/I2C_LCD.c **** * Return:
 799:.\Generated_Source\PSoC5/I2C_LCD.c **** *  None
 800:.\Generated_Source\PSoC5/I2C_LCD.c **** *
 801:.\Generated_Source\PSoC5/I2C_LCD.c **** * Reentrant:
 802:.\Generated_Source\PSoC5/I2C_LCD.c **** *  No
 803:.\Generated_Source\PSoC5/I2C_LCD.c **** *
 804:.\Generated_Source\PSoC5/I2C_LCD.c **** *******************************************************************************/
 805:.\Generated_Source\PSoC5/I2C_LCD.c **** void I2C_LCD_PrintNumber(uint16 value) 
 806:.\Generated_Source\PSoC5/I2C_LCD.c **** {
 807:.\Generated_Source\PSoC5/I2C_LCD.c ****     char8 number[I2C_LCD_NUMBER_OF_REMAINDERS];
 808:.\Generated_Source\PSoC5/I2C_LCD.c ****     char8 temp[I2C_LCD_NUMBER_OF_REMAINDERS];
 809:.\Generated_Source\PSoC5/I2C_LCD.c **** 
 810:.\Generated_Source\PSoC5/I2C_LCD.c ****     uint8 digIndex = 0u;
 811:.\Generated_Source\PSoC5/I2C_LCD.c ****     uint8 numDigits;
 812:.\Generated_Source\PSoC5/I2C_LCD.c **** 
 813:.\Generated_Source\PSoC5/I2C_LCD.c ****     /* Load these in reverse order */
 814:.\Generated_Source\PSoC5/I2C_LCD.c ****     while(value >= I2C_LCD_TEN)
 815:.\Generated_Source\PSoC5/I2C_LCD.c ****     {
 816:.\Generated_Source\PSoC5/I2C_LCD.c ****         temp[digIndex] = (value % I2C_LCD_TEN) + '0';
 817:.\Generated_Source\PSoC5/I2C_LCD.c ****         value /= I2C_LCD_TEN;
ARM GAS  C:\Users\robert\AppData\Local\Temp\ccN28sHs.s 			page 18


 818:.\Generated_Source\PSoC5/I2C_LCD.c ****         digIndex++;
 819:.\Generated_Source\PSoC5/I2C_LCD.c ****     }
 820:.\Generated_Source\PSoC5/I2C_LCD.c **** 
 821:.\Generated_Source\PSoC5/I2C_LCD.c ****     temp[digIndex] = (value % I2C_LCD_TEN) + '0';
 822:.\Generated_Source\PSoC5/I2C_LCD.c ****     numDigits = digIndex;
 823:.\Generated_Source\PSoC5/I2C_LCD.c **** 
 824:.\Generated_Source\PSoC5/I2C_LCD.c ****     /* While index is greater than or equal to zero copy number
 825:.\Generated_Source\PSoC5/I2C_LCD.c ****     * from temporary array to number[].
 826:.\Generated_Source\PSoC5/I2C_LCD.c ****     */
 827:.\Generated_Source\PSoC5/I2C_LCD.c ****     while (digIndex != 0u)
 828:.\Generated_Source\PSoC5/I2C_LCD.c ****     {
 829:.\Generated_Source\PSoC5/I2C_LCD.c ****         number[numDigits - digIndex] = temp[digIndex];
 830:.\Generated_Source\PSoC5/I2C_LCD.c ****         digIndex--;
 831:.\Generated_Source\PSoC5/I2C_LCD.c ****     }
 832:.\Generated_Source\PSoC5/I2C_LCD.c **** 
 833:.\Generated_Source\PSoC5/I2C_LCD.c ****     /* Copy last digit */
 834:.\Generated_Source\PSoC5/I2C_LCD.c ****     number[numDigits] = temp[0u];
 835:.\Generated_Source\PSoC5/I2C_LCD.c **** 
 836:.\Generated_Source\PSoC5/I2C_LCD.c ****     /* Null Termination */
 837:.\Generated_Source\PSoC5/I2C_LCD.c ****     number[numDigits + 1u] = (char8) '\0';
 838:.\Generated_Source\PSoC5/I2C_LCD.c **** 
 839:.\Generated_Source\PSoC5/I2C_LCD.c ****     /* Print out number */
 840:.\Generated_Source\PSoC5/I2C_LCD.c ****     I2C_LCD_PrintString(&number[0u]);
 841:.\Generated_Source\PSoC5/I2C_LCD.c **** }
 842:.\Generated_Source\PSoC5/I2C_LCD.c **** 
 843:.\Generated_Source\PSoC5/I2C_LCD.c **** 
 844:.\Generated_Source\PSoC5/I2C_LCD.c **** /*******************************************************************************
 845:.\Generated_Source\PSoC5/I2C_LCD.c **** * Function Name: I2C_LCD_SetAddr
 846:.\Generated_Source\PSoC5/I2C_LCD.c **** ********************************************************************************
 847:.\Generated_Source\PSoC5/I2C_LCD.c **** *
 848:.\Generated_Source\PSoC5/I2C_LCD.c **** * Summary:
 849:.\Generated_Source\PSoC5/I2C_LCD.c **** *  This function allows the user to change the default I2C address of the LCD.
 850:.\Generated_Source\PSoC5/I2C_LCD.c **** *  This function is not used for designs with a single LCD. Systems that have 2
 851:.\Generated_Source\PSoC5/I2C_LCD.c **** *  or more LCDs on a single I2C bus, use this function to select which LCD to
 852:.\Generated_Source\PSoC5/I2C_LCD.c **** *  communicate. A uint8 variable I2C_LCD_address, will be will be set
 853:.\Generated_Source\PSoC5/I2C_LCD.c **** *  to the "address" parameter and be used for all further communication until
 854:.\Generated_Source\PSoC5/I2C_LCD.c **** *  it is changed to a new address.
 855:.\Generated_Source\PSoC5/I2C_LCD.c **** *
 856:.\Generated_Source\PSoC5/I2C_LCD.c **** * Parameters:
 857:.\Generated_Source\PSoC5/I2C_LCD.c **** *  None
 858:.\Generated_Source\PSoC5/I2C_LCD.c **** *
 859:.\Generated_Source\PSoC5/I2C_LCD.c **** * Return:
 860:.\Generated_Source\PSoC5/I2C_LCD.c **** *  None
 861:.\Generated_Source\PSoC5/I2C_LCD.c **** *
 862:.\Generated_Source\PSoC5/I2C_LCD.c **** * Reentrant:
 863:.\Generated_Source\PSoC5/I2C_LCD.c **** *  No
 864:.\Generated_Source\PSoC5/I2C_LCD.c **** *
 865:.\Generated_Source\PSoC5/I2C_LCD.c **** *******************************************************************************/
 866:.\Generated_Source\PSoC5/I2C_LCD.c **** void I2C_LCD_SetAddr(uint8 address) 
 867:.\Generated_Source\PSoC5/I2C_LCD.c **** {
 868:.\Generated_Source\PSoC5/I2C_LCD.c ****     #if(I2C_LCD_IS_SCB_MASTER_USED)
 869:.\Generated_Source\PSoC5/I2C_LCD.c ****         I2C_LCD_address = ((uint32) address >> I2C_LCD_ADDRESS_SHIFT);
 870:.\Generated_Source\PSoC5/I2C_LCD.c ****     #else
 871:.\Generated_Source\PSoC5/I2C_LCD.c ****         I2C_LCD_address = ((uint8) address >> I2C_LCD_ADDRESS_SHIFT);
 872:.\Generated_Source\PSoC5/I2C_LCD.c ****     #endif /* (I2C_LCD_IS_SCB_MASTER_USED) */
 873:.\Generated_Source\PSoC5/I2C_LCD.c **** }
 874:.\Generated_Source\PSoC5/I2C_LCD.c **** 
ARM GAS  C:\Users\robert\AppData\Local\Temp\ccN28sHs.s 			page 19


 875:.\Generated_Source\PSoC5/I2C_LCD.c **** 
 876:.\Generated_Source\PSoC5/I2C_LCD.c **** #if (I2C_LCD_CUSTOM_CHAR_SET != I2C_LCD_NONE)
 877:.\Generated_Source\PSoC5/I2C_LCD.c **** 
 878:.\Generated_Source\PSoC5/I2C_LCD.c ****     /*******************************************************************************
 879:.\Generated_Source\PSoC5/I2C_LCD.c ****     * Function Name: I2C_LCD_LoadCustomFonts
 880:.\Generated_Source\PSoC5/I2C_LCD.c ****     ********************************************************************************
 881:.\Generated_Source\PSoC5/I2C_LCD.c ****     *
 882:.\Generated_Source\PSoC5/I2C_LCD.c ****     * Summary:
 883:.\Generated_Source\PSoC5/I2C_LCD.c ****     *  Loads 8 custom font characters into the LCD Module for use.  Cannot use
 884:.\Generated_Source\PSoC5/I2C_LCD.c ****     *  characters from two different font sets at once, but font sets can be
 885:.\Generated_Source\PSoC5/I2C_LCD.c ****     *  switched out during runtime.
 886:.\Generated_Source\PSoC5/I2C_LCD.c ****     *
 887:.\Generated_Source\PSoC5/I2C_LCD.c ****     * Parameters:
 888:.\Generated_Source\PSoC5/I2C_LCD.c ****     *  customData:  The pointer to a constant array of 64 bytes representing 
 889:.\Generated_Source\PSoC5/I2C_LCD.c ****     *               8 custom font characters.
 890:.\Generated_Source\PSoC5/I2C_LCD.c ****     * Return:
 891:.\Generated_Source\PSoC5/I2C_LCD.c ****     *  None
 892:.\Generated_Source\PSoC5/I2C_LCD.c ****     *
 893:.\Generated_Source\PSoC5/I2C_LCD.c ****     * Reentrant:
 894:.\Generated_Source\PSoC5/I2C_LCD.c ****     *  No
 895:.\Generated_Source\PSoC5/I2C_LCD.c ****     *
 896:.\Generated_Source\PSoC5/I2C_LCD.c ****     * Theory:
 897:.\Generated_Source\PSoC5/I2C_LCD.c ****     *  Prior to using this function user need to import the pointer to custom
 898:.\Generated_Source\PSoC5/I2C_LCD.c ****     *  font array to your project by writing the following in the source code file
 899:.\Generated_Source\PSoC5/I2C_LCD.c ****     *  where custom font will be used:
 900:.\Generated_Source\PSoC5/I2C_LCD.c ****     *       extern uint8 const CYCODE LCD_Char_customFonts[];
 901:.\Generated_Source\PSoC5/I2C_LCD.c ****     *  This function is not automatically called by the Start() routine and must be
 902:.\Generated_Source\PSoC5/I2C_LCD.c ****     *  called manually by the user.
 903:.\Generated_Source\PSoC5/I2C_LCD.c ****     *
 904:.\Generated_Source\PSoC5/I2C_LCD.c ****     *******************************************************************************/
 905:.\Generated_Source\PSoC5/I2C_LCD.c ****     void I2C_LCD_LoadCustomFonts(uint8 const customData[])
 906:.\Generated_Source\PSoC5/I2C_LCD.c ****                                                             
 907:.\Generated_Source\PSoC5/I2C_LCD.c ****     {
 908:.\Generated_Source\PSoC5/I2C_LCD.c ****         uint8 i;
 909:.\Generated_Source\PSoC5/I2C_LCD.c **** 
 910:.\Generated_Source\PSoC5/I2C_LCD.c ****         #if (I2C_LCD_COMMAND_FORMAT != I2C_LCD_NXP_PCF2119X)
 911:.\Generated_Source\PSoC5/I2C_LCD.c ****             uint8 addrOffset = 0u;
 912:.\Generated_Source\PSoC5/I2C_LCD.c ****             uint8 count = 0u;
 913:.\Generated_Source\PSoC5/I2C_LCD.c ****         #endif /* (I2C_LCD_COMMAND_FORMAT != I2C_LCD_NXP_PCF2119X) */
 914:.\Generated_Source\PSoC5/I2C_LCD.c **** 
 915:.\Generated_Source\PSoC5/I2C_LCD.c ****         #if (I2C_LCD_COMMAND_FORMAT == I2C_LCD_NXP_PCF2119X)
 916:.\Generated_Source\PSoC5/I2C_LCD.c ****             /* Set starting address in LCD Module as it is location of CGRAM */
 917:.\Generated_Source\PSoC5/I2C_LCD.c ****             I2C_LCD_WriteControl(I2C_LCD_CGRAM_0);
 918:.\Generated_Source\PSoC5/I2C_LCD.c **** 
 919:.\Generated_Source\PSoC5/I2C_LCD.c ****             /* Set Control pattern for data writing */
 920:.\Generated_Source\PSoC5/I2C_LCD.c ****             I2C_LCD_WrCntrlPatt(I2C_LCD_WRITE_DATA_IDX);
 921:.\Generated_Source\PSoC5/I2C_LCD.c **** 
 922:.\Generated_Source\PSoC5/I2C_LCD.c ****             /* Load in 64 bytes of CustomChar Data */
 923:.\Generated_Source\PSoC5/I2C_LCD.c ****             for(i = 0u; i < I2C_LCD_CUSTOM_CHAR_SET_LEN; i++)
 924:.\Generated_Source\PSoC5/I2C_LCD.c ****             {
 925:.\Generated_Source\PSoC5/I2C_LCD.c ****                 /* Variable 'i' defines character ID (character address) */
 926:.\Generated_Source\PSoC5/I2C_LCD.c ****                 I2C_LCD_WrDataToBuff(customData[i]);
 927:.\Generated_Source\PSoC5/I2C_LCD.c ****             }
 928:.\Generated_Source\PSoC5/I2C_LCD.c **** 
 929:.\Generated_Source\PSoC5/I2C_LCD.c ****             /* Send data to LCD and wait when transaction completes */
 930:.\Generated_Source\PSoC5/I2C_LCD.c ****             I2C_LCD_SendSequence();
 931:.\Generated_Source\PSoC5/I2C_LCD.c ****             
ARM GAS  C:\Users\robert\AppData\Local\Temp\ccN28sHs.s 			page 20


 932:.\Generated_Source\PSoC5/I2C_LCD.c ****             /* Set the LCD modules address register back to the start of the data RAM */
 933:.\Generated_Source\PSoC5/I2C_LCD.c ****             I2C_LCD_Position(0u ,0u);
 934:.\Generated_Source\PSoC5/I2C_LCD.c ****         #else
 935:.\Generated_Source\PSoC5/I2C_LCD.c ****             while(addrOffset < I2C_LCD_CUSTOM_CHAR_SET_LEN)
 936:.\Generated_Source\PSoC5/I2C_LCD.c ****             {
 937:.\Generated_Source\PSoC5/I2C_LCD.c ****                 /* Set starting address in LCD Module as it is location of CGRAM. */
 938:.\Generated_Source\PSoC5/I2C_LCD.c ****                 I2C_LCD_WrCntrlPatt(I2C_LCD_CGRAM_0_IDX);
 939:.\Generated_Source\PSoC5/I2C_LCD.c ****                 
 940:.\Generated_Source\PSoC5/I2C_LCD.c ****                 /* Variable 'i' defines character ID (character address) */
 941:.\Generated_Source\PSoC5/I2C_LCD.c ****                 I2C_LCD_WrDataToBuff(count);
 942:.\Generated_Source\PSoC5/I2C_LCD.c ****                 
 943:.\Generated_Source\PSoC5/I2C_LCD.c ****                 /* Increment count (actually means to increment custom character address) */
 944:.\Generated_Source\PSoC5/I2C_LCD.c ****                 count++;
 945:.\Generated_Source\PSoC5/I2C_LCD.c ****                 
 946:.\Generated_Source\PSoC5/I2C_LCD.c ****                 for(i = 0u; i < I2C_LCD_CHARACTER_HEIGHT; i++)
 947:.\Generated_Source\PSoC5/I2C_LCD.c ****                 {
 948:.\Generated_Source\PSoC5/I2C_LCD.c ****                     I2C_LCD_WrDataToBuff(customData[addrOffset + i]);
 949:.\Generated_Source\PSoC5/I2C_LCD.c ****                 }
 950:.\Generated_Source\PSoC5/I2C_LCD.c **** 
 951:.\Generated_Source\PSoC5/I2C_LCD.c ****                 /* Send data to LCD and wait when transaction complete */
 952:.\Generated_Source\PSoC5/I2C_LCD.c ****                 I2C_LCD_SendSequence();
 953:.\Generated_Source\PSoC5/I2C_LCD.c ****                 
 954:.\Generated_Source\PSoC5/I2C_LCD.c ****                 /* Calculate next offset value */
 955:.\Generated_Source\PSoC5/I2C_LCD.c ****                 addrOffset += I2C_LCD_CHARACTER_HEIGHT;
 956:.\Generated_Source\PSoC5/I2C_LCD.c ****             }
 957:.\Generated_Source\PSoC5/I2C_LCD.c ****         #endif /* (I2C_LCD_COMMAND_FORMAT != I2C_LCD_NXP_PCF2119X) */
 958:.\Generated_Source\PSoC5/I2C_LCD.c ****     }
 959:.\Generated_Source\PSoC5/I2C_LCD.c **** 
 960:.\Generated_Source\PSoC5/I2C_LCD.c **** #endif /* I2C_LCD_CUSTOM_CHAR_SET == I2C_LCD_NONE */
 961:.\Generated_Source\PSoC5/I2C_LCD.c **** 
 962:.\Generated_Source\PSoC5/I2C_LCD.c **** 
 963:.\Generated_Source\PSoC5/I2C_LCD.c **** #if((I2C_LCD_CUSTOM_CHAR_SET == I2C_LCD_VERTICAL_BG) || \
 964:.\Generated_Source\PSoC5/I2C_LCD.c ****                 (I2C_LCD_CUSTOM_CHAR_SET == I2C_LCD_HORIZONTAL_BG))
 965:.\Generated_Source\PSoC5/I2C_LCD.c **** 
 966:.\Generated_Source\PSoC5/I2C_LCD.c ****     /*******************************************************************************
 967:.\Generated_Source\PSoC5/I2C_LCD.c ****     * Function Name: I2C_LCD_DrawHorizontalBG
 968:.\Generated_Source\PSoC5/I2C_LCD.c ****     ********************************************************************************
 969:.\Generated_Source\PSoC5/I2C_LCD.c ****     *
 970:.\Generated_Source\PSoC5/I2C_LCD.c ****     * Summary:
 971:.\Generated_Source\PSoC5/I2C_LCD.c ****     *  Draws the horizontal bargraph.
 972:.\Generated_Source\PSoC5/I2C_LCD.c ****     *
 973:.\Generated_Source\PSoC5/I2C_LCD.c ****     * Parameters:
 974:.\Generated_Source\PSoC5/I2C_LCD.c ****     *  row:            The row in which the bar graph starts.
 975:.\Generated_Source\PSoC5/I2C_LCD.c ****     *  column:         The column in which the bar graph starts.
 976:.\Generated_Source\PSoC5/I2C_LCD.c ****     *  maxCharacters:  The max length of the graph in whole characters.
 977:.\Generated_Source\PSoC5/I2C_LCD.c ****     *  value:          The current length or height of the graph in pixels.
 978:.\Generated_Source\PSoC5/I2C_LCD.c ****     *
 979:.\Generated_Source\PSoC5/I2C_LCD.c ****     * Return:
 980:.\Generated_Source\PSoC5/I2C_LCD.c ****     *  None
 981:.\Generated_Source\PSoC5/I2C_LCD.c ****     *
 982:.\Generated_Source\PSoC5/I2C_LCD.c ****     * Reentrant:
 983:.\Generated_Source\PSoC5/I2C_LCD.c ****     *  No
 984:.\Generated_Source\PSoC5/I2C_LCD.c ****     *
 985:.\Generated_Source\PSoC5/I2C_LCD.c ****     *******************************************************************************/
 986:.\Generated_Source\PSoC5/I2C_LCD.c ****     void I2C_LCD_DrawHorizontalBG(uint8 row, uint8 column, uint8 maxCharacters, uint8 value) \
 987:.\Generated_Source\PSoC5/I2C_LCD.c ****                                                             
 988:.\Generated_Source\PSoC5/I2C_LCD.c ****     {
ARM GAS  C:\Users\robert\AppData\Local\Temp\ccN28sHs.s 			page 21


 989:.\Generated_Source\PSoC5/I2C_LCD.c ****         /* 8-bit Counter */
 990:.\Generated_Source\PSoC5/I2C_LCD.c ****         uint8 count8;
 991:.\Generated_Source\PSoC5/I2C_LCD.c ****         uint8 fullChars;
 992:.\Generated_Source\PSoC5/I2C_LCD.c ****         uint8 remainingPixels;
 993:.\Generated_Source\PSoC5/I2C_LCD.c **** 
 994:.\Generated_Source\PSoC5/I2C_LCD.c ****         /* Number of full characters to draw */
 995:.\Generated_Source\PSoC5/I2C_LCD.c ****         fullChars = value / I2C_LCD_CHARACTER_WIDTH;
 996:.\Generated_Source\PSoC5/I2C_LCD.c **** 
 997:.\Generated_Source\PSoC5/I2C_LCD.c ****         /* Number of remaining pixels to draw */
 998:.\Generated_Source\PSoC5/I2C_LCD.c ****         remainingPixels = value % I2C_LCD_CHARACTER_WIDTH;
 999:.\Generated_Source\PSoC5/I2C_LCD.c **** 
1000:.\Generated_Source\PSoC5/I2C_LCD.c ****         /* Ensure that maximum character limit is followed. */
1001:.\Generated_Source\PSoC5/I2C_LCD.c ****         if(fullChars >= maxCharacters)
1002:.\Generated_Source\PSoC5/I2C_LCD.c ****         {
1003:.\Generated_Source\PSoC5/I2C_LCD.c ****             fullChars = maxCharacters;
1004:.\Generated_Source\PSoC5/I2C_LCD.c ****         }
1005:.\Generated_Source\PSoC5/I2C_LCD.c **** 
1006:.\Generated_Source\PSoC5/I2C_LCD.c ****         /* Put Cursor at start position */
1007:.\Generated_Source\PSoC5/I2C_LCD.c ****         I2C_LCD_Position(row, column);
1008:.\Generated_Source\PSoC5/I2C_LCD.c **** 
1009:.\Generated_Source\PSoC5/I2C_LCD.c ****         /* Set Control pattern for data writing */
1010:.\Generated_Source\PSoC5/I2C_LCD.c ****         I2C_LCD_WrCntrlPatt(I2C_LCD_WRITE_DATA_IDX);
1011:.\Generated_Source\PSoC5/I2C_LCD.c **** 
1012:.\Generated_Source\PSoC5/I2C_LCD.c ****         /* Write full characters */
1013:.\Generated_Source\PSoC5/I2C_LCD.c ****         for(count8 = 0u; count8 < fullChars; count8++)
1014:.\Generated_Source\PSoC5/I2C_LCD.c ****         {
1015:.\Generated_Source\PSoC5/I2C_LCD.c ****             I2C_LCD_WrDataToBuff(I2C_LCD_CUSTOM_5);
1016:.\Generated_Source\PSoC5/I2C_LCD.c ****         }
1017:.\Generated_Source\PSoC5/I2C_LCD.c **** 
1018:.\Generated_Source\PSoC5/I2C_LCD.c ****         if(fullChars < maxCharacters)
1019:.\Generated_Source\PSoC5/I2C_LCD.c ****         {
1020:.\Generated_Source\PSoC5/I2C_LCD.c ****             /* Write remaining pixels */
1021:.\Generated_Source\PSoC5/I2C_LCD.c ****             I2C_LCD_WrDataToBuff(remainingPixels);
1022:.\Generated_Source\PSoC5/I2C_LCD.c **** 
1023:.\Generated_Source\PSoC5/I2C_LCD.c ****             if(fullChars < (maxCharacters - 1u))
1024:.\Generated_Source\PSoC5/I2C_LCD.c ****             {
1025:.\Generated_Source\PSoC5/I2C_LCD.c ****                 /* Fill with whitespace to end of bar graph */
1026:.\Generated_Source\PSoC5/I2C_LCD.c ****                 for(count8 = 0u; count8 < (maxCharacters - fullChars - 1u); count8++)
1027:.\Generated_Source\PSoC5/I2C_LCD.c ****                 {
1028:.\Generated_Source\PSoC5/I2C_LCD.c ****                     I2C_LCD_WrDataToBuff(I2C_LCD_CUSTOM_0);
1029:.\Generated_Source\PSoC5/I2C_LCD.c ****                 }
1030:.\Generated_Source\PSoC5/I2C_LCD.c ****             }
1031:.\Generated_Source\PSoC5/I2C_LCD.c ****         }
1032:.\Generated_Source\PSoC5/I2C_LCD.c **** 
1033:.\Generated_Source\PSoC5/I2C_LCD.c ****         /* Send data to LCD and wait when transaction complete */
1034:.\Generated_Source\PSoC5/I2C_LCD.c ****         I2C_LCD_SendSequence();
1035:.\Generated_Source\PSoC5/I2C_LCD.c ****     }
1036:.\Generated_Source\PSoC5/I2C_LCD.c **** 
1037:.\Generated_Source\PSoC5/I2C_LCD.c **** 
1038:.\Generated_Source\PSoC5/I2C_LCD.c ****     /*******************************************************************************
1039:.\Generated_Source\PSoC5/I2C_LCD.c ****     *  Function Name: I2C_LCD_DrawVerticalBG
1040:.\Generated_Source\PSoC5/I2C_LCD.c ****     ********************************************************************************
1041:.\Generated_Source\PSoC5/I2C_LCD.c ****     *
1042:.\Generated_Source\PSoC5/I2C_LCD.c ****     * Summary:
1043:.\Generated_Source\PSoC5/I2C_LCD.c ****     *  Draws the vertical bargraph.
1044:.\Generated_Source\PSoC5/I2C_LCD.c ****     *
1045:.\Generated_Source\PSoC5/I2C_LCD.c ****     * Parameters:
ARM GAS  C:\Users\robert\AppData\Local\Temp\ccN28sHs.s 			page 22


1046:.\Generated_Source\PSoC5/I2C_LCD.c ****     *  row:            The row in which the bar graph starts.
1047:.\Generated_Source\PSoC5/I2C_LCD.c ****     *  column:         The column in which the bar graph starts.
1048:.\Generated_Source\PSoC5/I2C_LCD.c ****     *  maxCharacters:  The max height of the graph in whole characters.
1049:.\Generated_Source\PSoC5/I2C_LCD.c ****     *  value:          The current length or height of the graph in pixels.
1050:.\Generated_Source\PSoC5/I2C_LCD.c ****     *
1051:.\Generated_Source\PSoC5/I2C_LCD.c ****     * Return:
1052:.\Generated_Source\PSoC5/I2C_LCD.c ****     *  None
1053:.\Generated_Source\PSoC5/I2C_LCD.c ****     *
1054:.\Generated_Source\PSoC5/I2C_LCD.c ****     * Reentrant:
1055:.\Generated_Source\PSoC5/I2C_LCD.c ****     *  No
1056:.\Generated_Source\PSoC5/I2C_LCD.c ****     *
1057:.\Generated_Source\PSoC5/I2C_LCD.c ****     *******************************************************************************/
1058:.\Generated_Source\PSoC5/I2C_LCD.c ****     void I2C_LCD_DrawVerticalBG(uint8 row, uint8 column, uint8 maxCharacters, uint8 value)
1059:.\Generated_Source\PSoC5/I2C_LCD.c ****                                                             
1060:.\Generated_Source\PSoC5/I2C_LCD.c ****     {
1061:.\Generated_Source\PSoC5/I2C_LCD.c ****         /* 8-bit Counter */
1062:.\Generated_Source\PSoC5/I2C_LCD.c ****         uint8 count8 = 0u;
1063:.\Generated_Source\PSoC5/I2C_LCD.c ****         /* Current Row Tracker */
1064:.\Generated_Source\PSoC5/I2C_LCD.c ****         int8 currentRow;
1065:.\Generated_Source\PSoC5/I2C_LCD.c ****         uint8 fullChars;
1066:.\Generated_Source\PSoC5/I2C_LCD.c ****         uint8 remainingPixels;
1067:.\Generated_Source\PSoC5/I2C_LCD.c **** 
1068:.\Generated_Source\PSoC5/I2C_LCD.c ****         /* Number of full characters to draw */
1069:.\Generated_Source\PSoC5/I2C_LCD.c ****         fullChars = value / I2C_LCD_CHARACTER_HEIGHT;
1070:.\Generated_Source\PSoC5/I2C_LCD.c **** 
1071:.\Generated_Source\PSoC5/I2C_LCD.c ****         /* Number of remaining pixels to draw */
1072:.\Generated_Source\PSoC5/I2C_LCD.c ****         remainingPixels = value % I2C_LCD_CHARACTER_HEIGHT;
1073:.\Generated_Source\PSoC5/I2C_LCD.c **** 
1074:.\Generated_Source\PSoC5/I2C_LCD.c ****         /* Put Cursor at start position */
1075:.\Generated_Source\PSoC5/I2C_LCD.c ****         I2C_LCD_Position(row, column);
1076:.\Generated_Source\PSoC5/I2C_LCD.c **** 
1077:.\Generated_Source\PSoC5/I2C_LCD.c ****         /* Make sure the bar graph fits inside the space allotted */
1078:.\Generated_Source\PSoC5/I2C_LCD.c ****         if(fullChars >= maxCharacters)
1079:.\Generated_Source\PSoC5/I2C_LCD.c ****         {
1080:.\Generated_Source\PSoC5/I2C_LCD.c ****             fullChars = maxCharacters;
1081:.\Generated_Source\PSoC5/I2C_LCD.c ****         }
1082:.\Generated_Source\PSoC5/I2C_LCD.c **** 
1083:.\Generated_Source\PSoC5/I2C_LCD.c ****         /*  Write full characters */
1084:.\Generated_Source\PSoC5/I2C_LCD.c ****         while(count8 < fullChars)
1085:.\Generated_Source\PSoC5/I2C_LCD.c ****         {
1086:.\Generated_Source\PSoC5/I2C_LCD.c ****             I2C_LCD_WriteData(I2C_LCD_CUSTOM_7);
1087:.\Generated_Source\PSoC5/I2C_LCD.c **** 
1088:.\Generated_Source\PSoC5/I2C_LCD.c ****             count8++;
1089:.\Generated_Source\PSoC5/I2C_LCD.c **** 
1090:.\Generated_Source\PSoC5/I2C_LCD.c ****             /* Each pass through, move one row higher */
1091:.\Generated_Source\PSoC5/I2C_LCD.c ****             if((((int8) row) - ((int8) count8)) >= 0)
1092:.\Generated_Source\PSoC5/I2C_LCD.c ****             {
1093:.\Generated_Source\PSoC5/I2C_LCD.c ****                 I2C_LCD_Position(row - count8, column);
1094:.\Generated_Source\PSoC5/I2C_LCD.c ****             }
1095:.\Generated_Source\PSoC5/I2C_LCD.c ****             else
1096:.\Generated_Source\PSoC5/I2C_LCD.c ****             {
1097:.\Generated_Source\PSoC5/I2C_LCD.c ****                 break;
1098:.\Generated_Source\PSoC5/I2C_LCD.c ****             }
1099:.\Generated_Source\PSoC5/I2C_LCD.c ****         }
1100:.\Generated_Source\PSoC5/I2C_LCD.c **** 
1101:.\Generated_Source\PSoC5/I2C_LCD.c ****         if(((((int8) row) - ((int8) count8)) >= 0) && (fullChars < maxCharacters))
1102:.\Generated_Source\PSoC5/I2C_LCD.c ****         {
ARM GAS  C:\Users\robert\AppData\Local\Temp\ccN28sHs.s 			page 23


1103:.\Generated_Source\PSoC5/I2C_LCD.c ****             /* Write remaining pixels */
1104:.\Generated_Source\PSoC5/I2C_LCD.c ****             if(remainingPixels == 0u)
1105:.\Generated_Source\PSoC5/I2C_LCD.c ****             {
1106:.\Generated_Source\PSoC5/I2C_LCD.c ****                 I2C_LCD_WriteData((uint8) ' ');
1107:.\Generated_Source\PSoC5/I2C_LCD.c ****             }
1108:.\Generated_Source\PSoC5/I2C_LCD.c ****             else
1109:.\Generated_Source\PSoC5/I2C_LCD.c ****             {
1110:.\Generated_Source\PSoC5/I2C_LCD.c ****                 I2C_LCD_WriteData(remainingPixels - 1u);
1111:.\Generated_Source\PSoC5/I2C_LCD.c ****             }
1112:.\Generated_Source\PSoC5/I2C_LCD.c **** 
1113:.\Generated_Source\PSoC5/I2C_LCD.c ****             currentRow = ((int8) row) - ((int8) count8) - 1;
1114:.\Generated_Source\PSoC5/I2C_LCD.c **** 
1115:.\Generated_Source\PSoC5/I2C_LCD.c ****             if(currentRow >= 0)
1116:.\Generated_Source\PSoC5/I2C_LCD.c ****             {
1117:.\Generated_Source\PSoC5/I2C_LCD.c ****                 /* Move up one row and fill with white space till top of bar graph */
1118:.\Generated_Source\PSoC5/I2C_LCD.c ****                 for(count8 = 0u; count8 < (maxCharacters - fullChars - 1u); count8++)
1119:.\Generated_Source\PSoC5/I2C_LCD.c ****                 {
1120:.\Generated_Source\PSoC5/I2C_LCD.c ****                     I2C_LCD_Position((uint8)currentRow, column);
1121:.\Generated_Source\PSoC5/I2C_LCD.c ****                     I2C_LCD_WriteData((uint8) ' ');
1122:.\Generated_Source\PSoC5/I2C_LCD.c ****                     currentRow --;
1123:.\Generated_Source\PSoC5/I2C_LCD.c ****                 }
1124:.\Generated_Source\PSoC5/I2C_LCD.c ****             }
1125:.\Generated_Source\PSoC5/I2C_LCD.c ****         }
1126:.\Generated_Source\PSoC5/I2C_LCD.c ****     }
1127:.\Generated_Source\PSoC5/I2C_LCD.c **** 
1128:.\Generated_Source\PSoC5/I2C_LCD.c **** #endif /* ((I2C_LCD_CUSTOM_CHAR_SET == I2C_LCD_VERTICAL_BG) || \
1129:.\Generated_Source\PSoC5/I2C_LCD.c ****                 (I2C_LCD_CUSTOM_CHAR_SET == I2C_LCD_HORIZONTAL_BG)) */
1130:.\Generated_Source\PSoC5/I2C_LCD.c **** 
1131:.\Generated_Source\PSoC5/I2C_LCD.c **** 
1132:.\Generated_Source\PSoC5/I2C_LCD.c **** #if (I2C_LCD_COMMAND_FORMAT == I2C_LCD_NXP_PCF2119X)
1133:.\Generated_Source\PSoC5/I2C_LCD.c **** 
1134:.\Generated_Source\PSoC5/I2C_LCD.c ****     /*******************************************************************************
1135:.\Generated_Source\PSoC5/I2C_LCD.c ****     * Function Name: I2C_LCD_SendCmd
1136:.\Generated_Source\PSoC5/I2C_LCD.c ****     ********************************************************************************
1137:.\Generated_Source\PSoC5/I2C_LCD.c ****     *
1138:.\Generated_Source\PSoC5/I2C_LCD.c ****     * Summary:
1139:.\Generated_Source\PSoC5/I2C_LCD.c ****     *  This function used to send the specific for NXP PCF2119X commands that are 
1140:.\Generated_Source\PSoC5/I2C_LCD.c ****     *  used to configure the LCD panel.
1141:.\Generated_Source\PSoC5/I2C_LCD.c ****     *
1142:.\Generated_Source\PSoC5/I2C_LCD.c ****     * Parameters:
1143:.\Generated_Source\PSoC5/I2C_LCD.c ****     *  None
1144:.\Generated_Source\PSoC5/I2C_LCD.c ****     *
1145:.\Generated_Source\PSoC5/I2C_LCD.c ****     * Return:
1146:.\Generated_Source\PSoC5/I2C_LCD.c ****     *  None
1147:.\Generated_Source\PSoC5/I2C_LCD.c ****     *
1148:.\Generated_Source\PSoC5/I2C_LCD.c ****     *******************************************************************************/
1149:.\Generated_Source\PSoC5/I2C_LCD.c ****     static void I2C_LCD_SendCmd(uint8 cmd) CYREENTRANT
1150:.\Generated_Source\PSoC5/I2C_LCD.c ****     {
 151              		.loc 1 1150 0
 152              		.cfi_startproc
 153              		@ args = 0, pretend = 0, frame = 0
 154              		@ frame_needed = 0, uses_anonymous_args = 0
 155              	.LVL8:
 156 0000 08B5     		push	{r3, lr}
 157              		.cfi_def_cfa_offset 8
 158              		.cfi_offset 3, -8
 159              		.cfi_offset 14, -4
ARM GAS  C:\Users\robert\AppData\Local\Temp\ccN28sHs.s 			page 24


1151:.\Generated_Source\PSoC5/I2C_LCD.c ****         I2C_LCD_buff[0u] = I2C_LCD_COMMAND_SEND;
 160              		.loc 1 1151 0
 161 0002 044B     		ldr	r3, .L16
 162 0004 0022     		movs	r2, #0
 163 0006 1A71     		strb	r2, [r3, #4]
1152:.\Generated_Source\PSoC5/I2C_LCD.c ****         I2C_LCD_buff[1u] = cmd;
 164              		.loc 1 1152 0
 165 0008 5871     		strb	r0, [r3, #5]
1153:.\Generated_Source\PSoC5/I2C_LCD.c ****         I2C_LCD_buffIndex = I2C_LCD_LENGTH_2_BYTES;
 166              		.loc 1 1153 0
 167 000a 0222     		movs	r2, #2
 168 000c 1A70     		strb	r2, [r3]
1154:.\Generated_Source\PSoC5/I2C_LCD.c ****         
1155:.\Generated_Source\PSoC5/I2C_LCD.c ****         I2C_LCD_SendSequence();
 169              		.loc 1 1155 0
 170 000e FFF7FEFF 		bl	I2C_LCD_SendSequence
 171              	.LVL9:
 172 0012 08BD     		pop	{r3, pc}
 173              	.L17:
 174              		.align	2
 175              	.L16:
 176 0014 00000000 		.word	.LANCHOR0
 177              		.cfi_endproc
 178              	.LFE19:
 179              		.size	I2C_LCD_SendCmd, .-I2C_LCD_SendCmd
 180              		.section	.text.I2C_LCD_Position,"ax",%progbits
 181              		.align	2
 182              		.global	I2C_LCD_Position
 183              		.thumb
 184              		.thumb_func
 185              		.type	I2C_LCD_Position, %function
 186              	I2C_LCD_Position:
 187              	.LFB4:
 276:.\Generated_Source\PSoC5/I2C_LCD.c ****     /* Write command pattern for "Set cursor position" to buffer */
 188              		.loc 1 276 0
 189              		.cfi_startproc
 190              		@ args = 0, pretend = 0, frame = 0
 191              		@ frame_needed = 0, uses_anonymous_args = 0
 192              	.LVL10:
 193 0000 38B5     		push	{r3, r4, r5, lr}
 194              		.cfi_def_cfa_offset 16
 195              		.cfi_offset 3, -16
 196              		.cfi_offset 4, -12
 197              		.cfi_offset 5, -8
 198              		.cfi_offset 14, -4
 199 0002 0546     		mov	r5, r0
 200 0004 0C46     		mov	r4, r1
 278:.\Generated_Source\PSoC5/I2C_LCD.c **** 
 201              		.loc 1 278 0
 202 0006 0320     		movs	r0, #3
 203              	.LVL11:
 204 0008 FFF7FEFF 		bl	I2C_LCD_WrCntrlPatt
 205              	.LVL12:
 289:.\Generated_Source\PSoC5/I2C_LCD.c ****         {
 206              		.loc 1 289 0
 207 000c 032D     		cmp	r5, #3
 208 000e 19D8     		bhi	.L19
ARM GAS  C:\Users\robert\AppData\Local\Temp\ccN28sHs.s 			page 25


 209 0010 DFE805F0 		tbb	[pc, r5]
 210              	.L21:
 211 0014 02       		.byte	(.L20-.L21)/2
 212 0015 07       		.byte	(.L22-.L21)/2
 213 0016 0D       		.byte	(.L23-.L21)/2
 214 0017 13       		.byte	(.L24-.L21)/2
 215              		.p2align 1
 216              	.L20:
 294:.\Generated_Source\PSoC5/I2C_LCD.c ****                 #else
 217              		.loc 1 294 0
 218 0018 84F08000 		eor	r0, r4, #128
 219 001c FFF7FEFF 		bl	I2C_LCD_WrDataToBuff
 220              	.LVL13:
 299:.\Generated_Source\PSoC5/I2C_LCD.c ****             
 221              		.loc 1 299 0
 222 0020 10E0     		b	.L19
 223              	.L22:
 302:.\Generated_Source\PSoC5/I2C_LCD.c ****                 break;
 224              		.loc 1 302 0
 225 0022 A4F14000 		sub	r0, r4, #64
 226 0026 C0B2     		uxtb	r0, r0
 227 0028 FFF7FEFF 		bl	I2C_LCD_WrDataToBuff
 228              	.LVL14:
 303:.\Generated_Source\PSoC5/I2C_LCD.c ****             
 229              		.loc 1 303 0
 230 002c 0AE0     		b	.L19
 231              	.L23:
 306:.\Generated_Source\PSoC5/I2C_LCD.c ****                 break;
 232              		.loc 1 306 0
 233 002e A4F16C00 		sub	r0, r4, #108
 234 0032 C0B2     		uxtb	r0, r0
 235 0034 FFF7FEFF 		bl	I2C_LCD_WrDataToBuff
 236              	.LVL15:
 307:.\Generated_Source\PSoC5/I2C_LCD.c ****             
 237              		.loc 1 307 0
 238 0038 04E0     		b	.L19
 239              	.L24:
 310:.\Generated_Source\PSoC5/I2C_LCD.c ****                 break;
 240              		.loc 1 310 0
 241 003a A4F12C00 		sub	r0, r4, #44
 242 003e C0B2     		uxtb	r0, r0
 243 0040 FFF7FEFF 		bl	I2C_LCD_WrDataToBuff
 244              	.LVL16:
 245              	.L19:
 320:.\Generated_Source\PSoC5/I2C_LCD.c **** }
 246              		.loc 1 320 0
 247 0044 FFF7FEFF 		bl	I2C_LCD_SendSequence
 248              	.LVL17:
 249 0048 38BD     		pop	{r3, r4, r5, pc}
 250              		.cfi_endproc
 251              	.LFE4:
 252              		.size	I2C_LCD_Position, .-I2C_LCD_Position
 253 004a 00BF     		.section	.text.I2C_LCD_WriteData,"ax",%progbits
 254              		.align	2
 255              		.global	I2C_LCD_WriteData
 256              		.thumb
 257              		.thumb_func
ARM GAS  C:\Users\robert\AppData\Local\Temp\ccN28sHs.s 			page 26


 258              		.type	I2C_LCD_WriteData, %function
 259              	I2C_LCD_WriteData:
 260              	.LFB5:
 344:.\Generated_Source\PSoC5/I2C_LCD.c ****     /* Send required control byte value to address data register */
 261              		.loc 1 344 0
 262              		.cfi_startproc
 263              		@ args = 0, pretend = 0, frame = 0
 264              		@ frame_needed = 0, uses_anonymous_args = 0
 265              	.LVL18:
 266 0000 10B5     		push	{r4, lr}
 267              		.cfi_def_cfa_offset 8
 268              		.cfi_offset 4, -8
 269              		.cfi_offset 14, -4
 270 0002 0446     		mov	r4, r0
 346:.\Generated_Source\PSoC5/I2C_LCD.c **** 
 271              		.loc 1 346 0
 272 0004 0020     		movs	r0, #0
 273              	.LVL19:
 274 0006 FFF7FEFF 		bl	I2C_LCD_WrCntrlPatt
 275              	.LVL20:
 349:.\Generated_Source\PSoC5/I2C_LCD.c **** 
 276              		.loc 1 349 0
 277 000a 2046     		mov	r0, r4
 278 000c FFF7FEFF 		bl	I2C_LCD_WrDataToBuff
 279              	.LVL21:
 352:.\Generated_Source\PSoC5/I2C_LCD.c **** }
 280              		.loc 1 352 0
 281 0010 FFF7FEFF 		bl	I2C_LCD_SendSequence
 282              	.LVL22:
 283 0014 10BD     		pop	{r4, pc}
 284              		.cfi_endproc
 285              	.LFE5:
 286              		.size	I2C_LCD_WriteData, .-I2C_LCD_WriteData
 287 0016 00BF     		.section	.text.I2C_LCD_WriteControl,"ax",%progbits
 288              		.align	2
 289              		.global	I2C_LCD_WriteControl
 290              		.thumb
 291              		.thumb_func
 292              		.type	I2C_LCD_WriteControl, %function
 293              	I2C_LCD_WriteControl:
 294              	.LFB7:
 424:.\Generated_Source\PSoC5/I2C_LCD.c ****     uint8 cmdIndx = 0u;
 295              		.loc 1 424 0
 296              		.cfi_startproc
 297              		@ args = 0, pretend = 0, frame = 0
 298              		@ frame_needed = 0, uses_anonymous_args = 0
 299              	.LVL23:
 425:.\Generated_Source\PSoC5/I2C_LCD.c ****     
 300              		.loc 1 425 0
 301 0000 0023     		movs	r3, #0
 427:.\Generated_Source\PSoC5/I2C_LCD.c ****     {   
 302              		.loc 1 427 0
 303 0002 20E0     		b	.L29
 304              	.LVL24:
 305              	.L34:
 429:.\Generated_Source\PSoC5/I2C_LCD.c ****         {
 306              		.loc 1 429 0
ARM GAS  C:\Users\robert\AppData\Local\Temp\ccN28sHs.s 			page 27


 307 0004 03EB4302 		add	r2, r3, r3, lsl #1
 308 0008 1149     		ldr	r1, .L37
 309 000a 0A44     		add	r2, r2, r1
 310 000c 9278     		ldrb	r2, [r2, #2]	@ zero_extendqisi2
 311 000e 8242     		cmp	r2, r0
 312 0010 17D1     		bne	.L30
 424:.\Generated_Source\PSoC5/I2C_LCD.c ****     uint8 cmdIndx = 0u;
 313              		.loc 1 424 0
 314 0012 10B5     		push	{r4, lr}
 315              		.cfi_def_cfa_offset 8
 316              		.cfi_offset 4, -8
 317              		.cfi_offset 14, -4
 318 0014 0446     		mov	r4, r0
 432:.\Generated_Source\PSoC5/I2C_LCD.c **** 
 319              		.loc 1 432 0
 320 0016 1846     		mov	r0, r3
 321              	.LVL25:
 322 0018 FFF7FEFF 		bl	I2C_LCD_WrCntrlPatt
 323              	.LVL26:
 435:.\Generated_Source\PSoC5/I2C_LCD.c **** 
 324              		.loc 1 435 0
 325 001c FFF7FEFF 		bl	I2C_LCD_SendSequence
 326              	.LVL27:
 438:.\Generated_Source\PSoC5/I2C_LCD.c ****             {
 327              		.loc 1 438 0
 328 0020 601E     		subs	r0, r4, #1
 329 0022 0D28     		cmp	r0, #13
 330 0024 12D8     		bhi	.L28
 331 0026 DFE800F0 		tbb	[pc, r0]
 332              	.L33:
 333 002a 07       		.byte	(.L32-.L33)/2
 334 002b 07       		.byte	(.L32-.L33)/2
 335 002c 11       		.byte	(.L28-.L33)/2
 336 002d 11       		.byte	(.L28-.L33)/2
 337 002e 11       		.byte	(.L28-.L33)/2
 338 002f 11       		.byte	(.L28-.L33)/2
 339 0030 11       		.byte	(.L28-.L33)/2
 340 0031 07       		.byte	(.L32-.L33)/2
 341 0032 11       		.byte	(.L28-.L33)/2
 342 0033 11       		.byte	(.L28-.L33)/2
 343 0034 11       		.byte	(.L28-.L33)/2
 344 0035 11       		.byte	(.L28-.L33)/2
 345 0036 11       		.byte	(.L28-.L33)/2
 346 0037 07       		.byte	(.L32-.L33)/2
 347              		.p2align 1
 348              	.L32:
 444:.\Generated_Source\PSoC5/I2C_LCD.c ****                     break;
 349              		.loc 1 444 0
 350 0038 40F2DC50 		movw	r0, #1500
 351 003c FFF7FEFF 		bl	CyDelayUs
 352              	.LVL28:
 445:.\Generated_Source\PSoC5/I2C_LCD.c ****                 default:
 353              		.loc 1 445 0
 354 0040 10BD     		pop	{r4, pc}
 355              	.LVL29:
 356              	.L30:
 357              		.cfi_def_cfa_offset 0
ARM GAS  C:\Users\robert\AppData\Local\Temp\ccN28sHs.s 			page 28


 358              		.cfi_restore 4
 359              		.cfi_restore 14
 453:.\Generated_Source\PSoC5/I2C_LCD.c ****     } 
 360              		.loc 1 453 0
 361 0042 0133     		adds	r3, r3, #1
 362              	.LVL30:
 363 0044 DBB2     		uxtb	r3, r3
 364              	.LVL31:
 365              	.L29:
 427:.\Generated_Source\PSoC5/I2C_LCD.c ****     {   
 366              		.loc 1 427 0
 367 0046 122B     		cmp	r3, #18
 368 0048 DCD9     		bls	.L34
 369 004a 7047     		bx	lr
 370              	.LVL32:
 371              	.L28:
 372              		.cfi_def_cfa_offset 8
 373              		.cfi_offset 4, -8
 374              		.cfi_offset 14, -4
 375 004c 10BD     		pop	{r4, pc}
 376              	.L38:
 377 004e 00BF     		.align	2
 378              	.L37:
 379 0050 00000000 		.word	.LANCHOR1
 380              		.cfi_endproc
 381              	.LFE7:
 382              		.size	I2C_LCD_WriteControl, .-I2C_LCD_WriteControl
 383              		.section	.text.I2C_LCD_Enable,"ax",%progbits
 384              		.align	2
 385              		.global	I2C_LCD_Enable
 386              		.thumb
 387              		.thumb_func
 388              		.type	I2C_LCD_Enable, %function
 389              	I2C_LCD_Enable:
 390              	.LFB1:
 189:.\Generated_Source\PSoC5/I2C_LCD.c ****     I2C_LCD_DisplayOn();
 391              		.loc 1 189 0
 392              		.cfi_startproc
 393              		@ args = 0, pretend = 0, frame = 0
 394              		@ frame_needed = 0, uses_anonymous_args = 0
 395 0000 08B5     		push	{r3, lr}
 396              		.cfi_def_cfa_offset 8
 397              		.cfi_offset 3, -8
 398              		.cfi_offset 14, -4
 190:.\Generated_Source\PSoC5/I2C_LCD.c **** }
 399              		.loc 1 190 0
 400 0002 0C20     		movs	r0, #12
 401 0004 FFF7FEFF 		bl	I2C_LCD_WriteControl
 402              	.LVL33:
 403 0008 08BD     		pop	{r3, pc}
 404              		.cfi_endproc
 405              	.LFE1:
 406              		.size	I2C_LCD_Enable, .-I2C_LCD_Enable
 407 000a 00BF     		.section	.text.I2C_LCD_Stop,"ax",%progbits
 408              		.align	2
 409              		.global	I2C_LCD_Stop
 410              		.thumb
ARM GAS  C:\Users\robert\AppData\Local\Temp\ccN28sHs.s 			page 29


 411              		.thumb_func
 412              		.type	I2C_LCD_Stop, %function
 413              	I2C_LCD_Stop:
 414              	.LFB3:
 250:.\Generated_Source\PSoC5/I2C_LCD.c ****     I2C_LCD_DisplayOff();
 415              		.loc 1 250 0
 416              		.cfi_startproc
 417              		@ args = 0, pretend = 0, frame = 0
 418              		@ frame_needed = 0, uses_anonymous_args = 0
 419 0000 08B5     		push	{r3, lr}
 420              		.cfi_def_cfa_offset 8
 421              		.cfi_offset 3, -8
 422              		.cfi_offset 14, -4
 251:.\Generated_Source\PSoC5/I2C_LCD.c **** }
 423              		.loc 1 251 0
 424 0002 0820     		movs	r0, #8
 425 0004 FFF7FEFF 		bl	I2C_LCD_WriteControl
 426              	.LVL34:
 427 0008 08BD     		pop	{r3, pc}
 428              		.cfi_endproc
 429              	.LFE3:
 430              		.size	I2C_LCD_Stop, .-I2C_LCD_Stop
 431 000a 00BF     		.section	.text.I2C_LCD_HandleCustomCommand,"ax",%progbits
 432              		.align	2
 433              		.global	I2C_LCD_HandleCustomCommand
 434              		.thumb
 435              		.thumb_func
 436              		.type	I2C_LCD_HandleCustomCommand, %function
 437              	I2C_LCD_HandleCustomCommand:
 438              	.LFB10:
 555:.\Generated_Source\PSoC5/I2C_LCD.c ****     uint8 i;
 439              		.loc 1 555 0
 440              		.cfi_startproc
 441              		@ args = 0, pretend = 0, frame = 0
 442              		@ frame_needed = 0, uses_anonymous_args = 0
 443              	.LVL35:
 444 0000 70B5     		push	{r4, r5, r6, lr}
 445              		.cfi_def_cfa_offset 16
 446              		.cfi_offset 4, -16
 447              		.cfi_offset 5, -12
 448              		.cfi_offset 6, -8
 449              		.cfi_offset 14, -4
 450              	.LVL36:
 558:.\Generated_Source\PSoC5/I2C_LCD.c ****     
 451              		.loc 1 558 0
 452 0002 0023     		movs	r3, #0
 560:.\Generated_Source\PSoC5/I2C_LCD.c ****     {   
 453              		.loc 1 560 0
 454 0004 19E0     		b	.L44
 455              	.LVL37:
 456              	.L49:
 562:.\Generated_Source\PSoC5/I2C_LCD.c ****         {
 457              		.loc 1 562 0
 458 0006 03EB4304 		add	r4, r3, r3, lsl #1
 459 000a 0D4D     		ldr	r5, .L51
 460 000c 2C44     		add	r4, r4, r5
 461 000e A478     		ldrb	r4, [r4, #2]	@ zero_extendqisi2
ARM GAS  C:\Users\robert\AppData\Local\Temp\ccN28sHs.s 			page 30


 462 0010 8442     		cmp	r4, r0
 463 0012 10D1     		bne	.L45
 464 0014 1646     		mov	r6, r2
 465 0016 0D46     		mov	r5, r1
 565:.\Generated_Source\PSoC5/I2C_LCD.c **** 
 466              		.loc 1 565 0
 467 0018 1846     		mov	r0, r3
 468              	.LVL38:
 469 001a FFF7FEFF 		bl	I2C_LCD_WrCntrlPatt
 470              	.LVL39:
 567:.\Generated_Source\PSoC5/I2C_LCD.c ****             {
 471              		.loc 1 567 0
 472 001e 0024     		movs	r4, #0
 473 0020 04E0     		b	.L46
 474              	.LVL40:
 475              	.L47:
 573:.\Generated_Source\PSoC5/I2C_LCD.c ****             }
 476              		.loc 1 573 0 discriminator 3
 477 0022 305D     		ldrb	r0, [r6, r4]	@ zero_extendqisi2
 478 0024 FFF7FEFF 		bl	I2C_LCD_WrDataToBuff
 479              	.LVL41:
 567:.\Generated_Source\PSoC5/I2C_LCD.c ****             {
 480              		.loc 1 567 0 discriminator 3
 481 0028 0134     		adds	r4, r4, #1
 482              	.LVL42:
 483 002a E4B2     		uxtb	r4, r4
 484              	.LVL43:
 485              	.L46:
 567:.\Generated_Source\PSoC5/I2C_LCD.c ****             {
 486              		.loc 1 567 0 is_stmt 0 discriminator 1
 487 002c AC42     		cmp	r4, r5
 488 002e F8D3     		bcc	.L47
 577:.\Generated_Source\PSoC5/I2C_LCD.c ****             /* The command index was found - break while() loop */
 489              		.loc 1 577 0 is_stmt 1
 490 0030 FFF7FEFF 		bl	I2C_LCD_SendSequence
 491              	.LVL44:
 579:.\Generated_Source\PSoC5/I2C_LCD.c ****         }
 492              		.loc 1 579 0
 493 0034 70BD     		pop	{r4, r5, r6, pc}
 494              	.LVL45:
 495              	.L45:
 582:.\Generated_Source\PSoC5/I2C_LCD.c ****     } 
 496              		.loc 1 582 0
 497 0036 0133     		adds	r3, r3, #1
 498              	.LVL46:
 499 0038 DBB2     		uxtb	r3, r3
 500              	.LVL47:
 501              	.L44:
 560:.\Generated_Source\PSoC5/I2C_LCD.c ****     {   
 502              		.loc 1 560 0
 503 003a 122B     		cmp	r3, #18
 504 003c E3D9     		bls	.L49
 505 003e 70BD     		pop	{r4, r5, r6, pc}
 506              	.L52:
 507              		.align	2
 508              	.L51:
 509 0040 00000000 		.word	.LANCHOR1
ARM GAS  C:\Users\robert\AppData\Local\Temp\ccN28sHs.s 			page 31


 510              		.cfi_endproc
 511              	.LFE10:
 512              		.size	I2C_LCD_HandleCustomCommand, .-I2C_LCD_HandleCustomCommand
 513              		.section	.text.I2C_LCD_HandleOneByteCommand,"ax",%progbits
 514              		.align	2
 515              		.global	I2C_LCD_HandleOneByteCommand
 516              		.thumb
 517              		.thumb_func
 518              		.type	I2C_LCD_HandleOneByteCommand, %function
 519              	I2C_LCD_HandleOneByteCommand:
 520              	.LFB11:
 607:.\Generated_Source\PSoC5/I2C_LCD.c ****     uint8 oneByteArray[I2C_LCD_ONE_BYTE_LEN];
 521              		.loc 1 607 0
 522              		.cfi_startproc
 523              		@ args = 0, pretend = 0, frame = 8
 524              		@ frame_needed = 0, uses_anonymous_args = 0
 525              	.LVL48:
 526 0000 00B5     		push	{lr}
 527              		.cfi_def_cfa_offset 4
 528              		.cfi_offset 14, -4
 529 0002 83B0     		sub	sp, sp, #12
 530              		.cfi_def_cfa_offset 16
 610:.\Generated_Source\PSoC5/I2C_LCD.c ****     
 531              		.loc 1 610 0
 532 0004 02AA     		add	r2, sp, #8
 533 0006 02F8041D 		strb	r1, [r2, #-4]!
 612:.\Generated_Source\PSoC5/I2C_LCD.c **** }
 534              		.loc 1 612 0
 535 000a 0121     		movs	r1, #1
 536              	.LVL49:
 537 000c FFF7FEFF 		bl	I2C_LCD_HandleCustomCommand
 538              	.LVL50:
 613:.\Generated_Source\PSoC5/I2C_LCD.c **** 
 539              		.loc 1 613 0
 540 0010 03B0     		add	sp, sp, #12
 541              		.cfi_def_cfa_offset 4
 542              		@ sp needed
 543 0012 5DF804FB 		ldr	pc, [sp], #4
 544              		.cfi_endproc
 545              	.LFE11:
 546              		.size	I2C_LCD_HandleOneByteCommand, .-I2C_LCD_HandleOneByteCommand
 547 0016 00BF     		.section	.text.I2C_LCD_PrintString,"ax",%progbits
 548              		.align	2
 549              		.global	I2C_LCD_PrintString
 550              		.thumb
 551              		.thumb_func
 552              		.type	I2C_LCD_PrintString, %function
 553              	I2C_LCD_PrintString:
 554              	.LFB12:
 636:.\Generated_Source\PSoC5/I2C_LCD.c ****     uint8 chIdx = 1u;
 555              		.loc 1 636 0
 556              		.cfi_startproc
 557              		@ args = 0, pretend = 0, frame = 0
 558              		@ frame_needed = 0, uses_anonymous_args = 0
 559              	.LVL51:
 560 0000 70B5     		push	{r4, r5, r6, lr}
 561              		.cfi_def_cfa_offset 16
ARM GAS  C:\Users\robert\AppData\Local\Temp\ccN28sHs.s 			page 32


 562              		.cfi_offset 4, -16
 563              		.cfi_offset 5, -12
 564              		.cfi_offset 6, -8
 565              		.cfi_offset 14, -4
 566 0002 0646     		mov	r6, r0
 567              	.LVL52:
 638:.\Generated_Source\PSoC5/I2C_LCD.c **** 
 568              		.loc 1 638 0
 569 0004 0578     		ldrb	r5, [r0]	@ zero_extendqisi2
 570              	.LVL53:
 641:.\Generated_Source\PSoC5/I2C_LCD.c **** 
 571              		.loc 1 641 0
 572 0006 0020     		movs	r0, #0
 573              	.LVL54:
 574 0008 FFF7FEFF 		bl	I2C_LCD_WrCntrlPatt
 575              	.LVL55:
 637:.\Generated_Source\PSoC5/I2C_LCD.c ****     char8 current = *string;
 576              		.loc 1 637 0
 577 000c 0124     		movs	r4, #1
 644:.\Generated_Source\PSoC5/I2C_LCD.c ****     {
 578              		.loc 1 644 0
 579 000e 0CE0     		b	.L56
 580              	.LVL56:
 581              	.L59:
 653:.\Generated_Source\PSoC5/I2C_LCD.c ****             {
 582              		.loc 1 653 0
 583 0010 072D     		cmp	r5, #7
 584 0012 03D8     		bhi	.L57
 655:.\Generated_Source\PSoC5/I2C_LCD.c ****             }
 585              		.loc 1 655 0
 586 0014 2846     		mov	r0, r5
 587 0016 FFF7FEFF 		bl	I2C_LCD_WrDataToBuff
 588              	.LVL57:
 589 001a 03E0     		b	.L58
 590              	.L57:
 659:.\Generated_Source\PSoC5/I2C_LCD.c ****             }
 591              		.loc 1 659 0
 592 001c 85F08000 		eor	r0, r5, #128
 593 0020 FFF7FEFF 		bl	I2C_LCD_WrDataToBuff
 594              	.LVL58:
 595              	.L58:
 668:.\Generated_Source\PSoC5/I2C_LCD.c ****         chIdx++;
 596              		.loc 1 668 0
 597 0024 355D     		ldrb	r5, [r6, r4]	@ zero_extendqisi2
 598              	.LVL59:
 669:.\Generated_Source\PSoC5/I2C_LCD.c ****     }
 599              		.loc 1 669 0
 600 0026 0134     		adds	r4, r4, #1
 601              	.LVL60:
 602 0028 E4B2     		uxtb	r4, r4
 603              	.LVL61:
 604              	.L56:
 644:.\Generated_Source\PSoC5/I2C_LCD.c ****     {
 605              		.loc 1 644 0
 606 002a 002D     		cmp	r5, #0
 607 002c F0D1     		bne	.L59
 673:.\Generated_Source\PSoC5/I2C_LCD.c **** }
ARM GAS  C:\Users\robert\AppData\Local\Temp\ccN28sHs.s 			page 33


 608              		.loc 1 673 0
 609 002e FFF7FEFF 		bl	I2C_LCD_SendSequence
 610              	.LVL62:
 611 0032 70BD     		pop	{r4, r5, r6, pc}
 612              		.cfi_endproc
 613              	.LFE12:
 614              		.size	I2C_LCD_PrintString, .-I2C_LCD_PrintString
 615              		.section	.text.I2C_LCD_PutChar,"ax",%progbits
 616              		.align	2
 617              		.global	I2C_LCD_PutChar
 618              		.thumb
 619              		.thumb_func
 620              		.type	I2C_LCD_PutChar, %function
 621              	I2C_LCD_PutChar:
 622              	.LFB13:
 697:.\Generated_Source\PSoC5/I2C_LCD.c ****     /* Send one byte of data with I2C_LCD_WriteData() */
 623              		.loc 1 697 0
 624              		.cfi_startproc
 625              		@ args = 0, pretend = 0, frame = 0
 626              		@ frame_needed = 0, uses_anonymous_args = 0
 627              	.LVL63:
 628 0000 08B5     		push	{r3, lr}
 629              		.cfi_def_cfa_offset 8
 630              		.cfi_offset 3, -8
 631              		.cfi_offset 14, -4
 705:.\Generated_Source\PSoC5/I2C_LCD.c ****         {
 632              		.loc 1 705 0
 633 0002 0728     		cmp	r0, #7
 634 0004 02D8     		bhi	.L62
 707:.\Generated_Source\PSoC5/I2C_LCD.c ****         }
 635              		.loc 1 707 0
 636 0006 FFF7FEFF 		bl	I2C_LCD_WriteData
 637              	.LVL64:
 638 000a 08BD     		pop	{r3, pc}
 639              	.LVL65:
 640              	.L62:
 711:.\Generated_Source\PSoC5/I2C_LCD.c ****         }
 641              		.loc 1 711 0
 642 000c 80F08000 		eor	r0, r0, #128
 643              	.LVL66:
 644 0010 FFF7FEFF 		bl	I2C_LCD_WriteData
 645              	.LVL67:
 646 0014 08BD     		pop	{r3, pc}
 647              		.cfi_endproc
 648              	.LFE13:
 649              		.size	I2C_LCD_PutChar, .-I2C_LCD_PutChar
 650 0016 00BF     		.section	.text.I2C_LCD_PrintInt8,"ax",%progbits
 651              		.align	2
 652              		.global	I2C_LCD_PrintInt8
 653              		.thumb
 654              		.thumb_func
 655              		.type	I2C_LCD_PrintInt8, %function
 656              	I2C_LCD_PrintInt8:
 657              	.LFB14:
 737:.\Generated_Source\PSoC5/I2C_LCD.c ****     static char8 const CYCODE I2C_LCD_hex[16u] = "0123456789ABCDEF";
 658              		.loc 1 737 0
 659              		.cfi_startproc
ARM GAS  C:\Users\robert\AppData\Local\Temp\ccN28sHs.s 			page 34


 660              		@ args = 0, pretend = 0, frame = 0
 661              		@ frame_needed = 0, uses_anonymous_args = 0
 662              	.LVL68:
 663 0000 38B5     		push	{r3, r4, r5, lr}
 664              		.cfi_def_cfa_offset 16
 665              		.cfi_offset 3, -16
 666              		.cfi_offset 4, -12
 667              		.cfi_offset 5, -8
 668              		.cfi_offset 14, -4
 669 0002 0446     		mov	r4, r0
 741:.\Generated_Source\PSoC5/I2C_LCD.c **** 
 670              		.loc 1 741 0
 671 0004 0020     		movs	r0, #0
 672              	.LVL69:
 673 0006 FFF7FEFF 		bl	I2C_LCD_WrCntrlPatt
 674              	.LVL70:
 750:.\Generated_Source\PSoC5/I2C_LCD.c ****                                                ^ I2C_LCD_CHARACTER_SET_S_MASK );
 675              		.loc 1 750 0
 676 000a 0A4D     		ldr	r5, .L67
 677 000c 05EB1413 		add	r3, r5, r4, lsr #4
 678 0010 93F83C00 		ldrb	r0, [r3, #60]	@ zero_extendqisi2
 679 0014 80F08000 		eor	r0, r0, #128
 680 0018 FFF7FEFF 		bl	I2C_LCD_WrDataToBuff
 681              	.LVL71:
 752:.\Generated_Source\PSoC5/I2C_LCD.c ****                                                I2C_LCD_CHARACTER_SET_S_MASK);
 682              		.loc 1 752 0
 683 001c 04F00F04 		and	r4, r4, #15
 684 0020 2C44     		add	r4, r4, r5
 685 0022 94F83C00 		ldrb	r0, [r4, #60]	@ zero_extendqisi2
 686 0026 80F08000 		eor	r0, r0, #128
 687 002a FFF7FEFF 		bl	I2C_LCD_WrDataToBuff
 688              	.LVL72:
 760:.\Generated_Source\PSoC5/I2C_LCD.c **** }
 689              		.loc 1 760 0
 690 002e FFF7FEFF 		bl	I2C_LCD_SendSequence
 691              	.LVL73:
 692 0032 38BD     		pop	{r3, r4, r5, pc}
 693              	.L68:
 694              		.align	2
 695              	.L67:
 696 0034 00000000 		.word	.LANCHOR1
 697              		.cfi_endproc
 698              	.LFE14:
 699              		.size	I2C_LCD_PrintInt8, .-I2C_LCD_PrintInt8
 700              		.section	.text.I2C_LCD_PrintInt16,"ax",%progbits
 701              		.align	2
 702              		.global	I2C_LCD_PrintInt16
 703              		.thumb
 704              		.thumb_func
 705              		.type	I2C_LCD_PrintInt16, %function
 706              	I2C_LCD_PrintInt16:
 707              	.LFB15:
 782:.\Generated_Source\PSoC5/I2C_LCD.c ****     I2C_LCD_PrintInt8((uint8)(value >> I2C_LCD_U16_UPPER_BYTE_SHIFT));
 708              		.loc 1 782 0
 709              		.cfi_startproc
 710              		@ args = 0, pretend = 0, frame = 0
 711              		@ frame_needed = 0, uses_anonymous_args = 0
ARM GAS  C:\Users\robert\AppData\Local\Temp\ccN28sHs.s 			page 35


 712              	.LVL74:
 713 0000 10B5     		push	{r4, lr}
 714              		.cfi_def_cfa_offset 8
 715              		.cfi_offset 4, -8
 716              		.cfi_offset 14, -4
 717 0002 0446     		mov	r4, r0
 783:.\Generated_Source\PSoC5/I2C_LCD.c ****     I2C_LCD_PrintInt8((uint8)(value & I2C_LCD_U16_LOWER_BYTE_MASK));
 718              		.loc 1 783 0
 719 0004 000A     		lsrs	r0, r0, #8
 720              	.LVL75:
 721 0006 FFF7FEFF 		bl	I2C_LCD_PrintInt8
 722              	.LVL76:
 784:.\Generated_Source\PSoC5/I2C_LCD.c **** }
 723              		.loc 1 784 0
 724 000a E0B2     		uxtb	r0, r4
 725 000c FFF7FEFF 		bl	I2C_LCD_PrintInt8
 726              	.LVL77:
 727 0010 10BD     		pop	{r4, pc}
 728              		.cfi_endproc
 729              	.LFE15:
 730              		.size	I2C_LCD_PrintInt16, .-I2C_LCD_PrintInt16
 731 0012 00BF     		.section	.text.I2C_LCD_PrintNumber,"ax",%progbits
 732              		.align	2
 733              		.global	I2C_LCD_PrintNumber
 734              		.thumb
 735              		.thumb_func
 736              		.type	I2C_LCD_PrintNumber, %function
 737              	I2C_LCD_PrintNumber:
 738              	.LFB16:
 806:.\Generated_Source\PSoC5/I2C_LCD.c ****     char8 number[I2C_LCD_NUMBER_OF_REMAINDERS];
 739              		.loc 1 806 0
 740              		.cfi_startproc
 741              		@ args = 0, pretend = 0, frame = 16
 742              		@ frame_needed = 0, uses_anonymous_args = 0
 743              	.LVL78:
 744 0000 10B5     		push	{r4, lr}
 745              		.cfi_def_cfa_offset 8
 746              		.cfi_offset 4, -8
 747              		.cfi_offset 14, -4
 748 0002 84B0     		sub	sp, sp, #16
 749              		.cfi_def_cfa_offset 24
 750              	.LVL79:
 810:.\Generated_Source\PSoC5/I2C_LCD.c ****     uint8 numDigits;
 751              		.loc 1 810 0
 752 0004 0023     		movs	r3, #0
 814:.\Generated_Source\PSoC5/I2C_LCD.c ****     {
 753              		.loc 1 814 0
 754 0006 0FE0     		b	.L72
 755              	.LVL80:
 756              	.L73:
 816:.\Generated_Source\PSoC5/I2C_LCD.c ****         value /= I2C_LCD_TEN;
 757              		.loc 1 816 0
 758 0008 04AA     		add	r2, sp, #16
 759 000a D418     		adds	r4, r2, r3
 760 000c 1E4A     		ldr	r2, .L77
 761 000e A2FB0012 		umull	r1, r2, r2, r0
 762 0012 D208     		lsrs	r2, r2, #3
ARM GAS  C:\Users\robert\AppData\Local\Temp\ccN28sHs.s 			page 36


 763 0014 02EB8201 		add	r1, r2, r2, lsl #2
 764 0018 4900     		lsls	r1, r1, #1
 765 001a 401A     		subs	r0, r0, r1
 766              	.LVL81:
 767 001c 3030     		adds	r0, r0, #48
 768 001e 04F8100C 		strb	r0, [r4, #-16]
 817:.\Generated_Source\PSoC5/I2C_LCD.c ****         digIndex++;
 769              		.loc 1 817 0
 770 0022 90B2     		uxth	r0, r2
 771              	.LVL82:
 818:.\Generated_Source\PSoC5/I2C_LCD.c ****     }
 772              		.loc 1 818 0
 773 0024 0133     		adds	r3, r3, #1
 774              	.LVL83:
 775 0026 DBB2     		uxtb	r3, r3
 776              	.LVL84:
 777              	.L72:
 814:.\Generated_Source\PSoC5/I2C_LCD.c ****     {
 778              		.loc 1 814 0
 779 0028 0928     		cmp	r0, #9
 780 002a EDD8     		bhi	.L73
 821:.\Generated_Source\PSoC5/I2C_LCD.c ****     numDigits = digIndex;
 781              		.loc 1 821 0
 782 002c 1C46     		mov	r4, r3
 783 002e 164A     		ldr	r2, .L77
 784 0030 A2FB0012 		umull	r1, r2, r2, r0
 785 0034 D208     		lsrs	r2, r2, #3
 786 0036 02EB8202 		add	r2, r2, r2, lsl #2
 787 003a 5200     		lsls	r2, r2, #1
 788 003c 801A     		subs	r0, r0, r2
 789              	.LVL85:
 790 003e 3030     		adds	r0, r0, #48
 791 0040 04AA     		add	r2, sp, #16
 792 0042 1A44     		add	r2, r2, r3
 793 0044 02F8100C 		strb	r0, [r2, #-16]
 822:.\Generated_Source\PSoC5/I2C_LCD.c **** 
 794              		.loc 1 822 0
 795 0048 1846     		mov	r0, r3
 796              	.LVL86:
 827:.\Generated_Source\PSoC5/I2C_LCD.c ****     {
 797              		.loc 1 827 0
 798 004a 0BE0     		b	.L74
 799              	.LVL87:
 800              	.L75:
 829:.\Generated_Source\PSoC5/I2C_LCD.c ****         digIndex--;
 801              		.loc 1 829 0
 802 004c E21A     		subs	r2, r4, r3
 803 004e 04A9     		add	r1, sp, #16
 804 0050 1944     		add	r1, r1, r3
 805 0052 11F8101C 		ldrb	r1, [r1, #-16]	@ zero_extendqisi2
 806 0056 0DF1100E 		add	lr, sp, #16
 807 005a 7244     		add	r2, r2, lr
 808 005c 02F8081C 		strb	r1, [r2, #-8]
 830:.\Generated_Source\PSoC5/I2C_LCD.c ****     }
 809              		.loc 1 830 0
 810 0060 013B     		subs	r3, r3, #1
 811              	.LVL88:
ARM GAS  C:\Users\robert\AppData\Local\Temp\ccN28sHs.s 			page 37


 812 0062 DBB2     		uxtb	r3, r3
 813              	.LVL89:
 814              	.L74:
 827:.\Generated_Source\PSoC5/I2C_LCD.c ****     {
 815              		.loc 1 827 0
 816 0064 002B     		cmp	r3, #0
 817 0066 F1D1     		bne	.L75
 834:.\Generated_Source\PSoC5/I2C_LCD.c **** 
 818              		.loc 1 834 0
 819 0068 9DF80030 		ldrb	r3, [sp]	@ zero_extendqisi2
 820              	.LVL90:
 821 006c 04AA     		add	r2, sp, #16
 822 006e 1444     		add	r4, r4, r2
 823 0070 04F8083C 		strb	r3, [r4, #-8]
 837:.\Generated_Source\PSoC5/I2C_LCD.c **** 
 824              		.loc 1 837 0
 825 0074 431C     		adds	r3, r0, #1
 826 0076 1344     		add	r3, r3, r2
 827 0078 0022     		movs	r2, #0
 828 007a 03F8082C 		strb	r2, [r3, #-8]
 840:.\Generated_Source\PSoC5/I2C_LCD.c **** }
 829              		.loc 1 840 0
 830 007e 02A8     		add	r0, sp, #8
 831 0080 FFF7FEFF 		bl	I2C_LCD_PrintString
 832              	.LVL91:
 841:.\Generated_Source\PSoC5/I2C_LCD.c **** 
 833              		.loc 1 841 0
 834 0084 04B0     		add	sp, sp, #16
 835              		.cfi_def_cfa_offset 8
 836              		@ sp needed
 837 0086 10BD     		pop	{r4, pc}
 838              	.L78:
 839              		.align	2
 840              	.L77:
 841 0088 CDCCCCCC 		.word	-858993459
 842              		.cfi_endproc
 843              	.LFE16:
 844              		.size	I2C_LCD_PrintNumber, .-I2C_LCD_PrintNumber
 845              		.section	.text.I2C_LCD_SetAddr,"ax",%progbits
 846              		.align	2
 847              		.global	I2C_LCD_SetAddr
 848              		.thumb
 849              		.thumb_func
 850              		.type	I2C_LCD_SetAddr, %function
 851              	I2C_LCD_SetAddr:
 852              	.LFB17:
 867:.\Generated_Source\PSoC5/I2C_LCD.c ****     #if(I2C_LCD_IS_SCB_MASTER_USED)
 853              		.loc 1 867 0
 854              		.cfi_startproc
 855              		@ args = 0, pretend = 0, frame = 0
 856              		@ frame_needed = 0, uses_anonymous_args = 0
 857              		@ link register save eliminated.
 858              	.LVL92:
 871:.\Generated_Source\PSoC5/I2C_LCD.c ****     #endif /* (I2C_LCD_IS_SCB_MASTER_USED) */
 859              		.loc 1 871 0
 860 0000 4008     		lsrs	r0, r0, #1
 861              	.LVL93:
ARM GAS  C:\Users\robert\AppData\Local\Temp\ccN28sHs.s 			page 38


 862 0002 014B     		ldr	r3, .L80
 863 0004 1870     		strb	r0, [r3]
 864 0006 7047     		bx	lr
 865              	.L81:
 866              		.align	2
 867              	.L80:
 868 0008 00000000 		.word	.LANCHOR2
 869              		.cfi_endproc
 870              	.LFE17:
 871              		.size	I2C_LCD_SetAddr, .-I2C_LCD_SetAddr
 872              		.section	.text.I2C_LCD_LoadCustomFonts,"ax",%progbits
 873              		.align	2
 874              		.global	I2C_LCD_LoadCustomFonts
 875              		.thumb
 876              		.thumb_func
 877              		.type	I2C_LCD_LoadCustomFonts, %function
 878              	I2C_LCD_LoadCustomFonts:
 879              	.LFB18:
 907:.\Generated_Source\PSoC5/I2C_LCD.c ****         uint8 i;
 880              		.loc 1 907 0
 881              		.cfi_startproc
 882              		@ args = 0, pretend = 0, frame = 0
 883              		@ frame_needed = 0, uses_anonymous_args = 0
 884              	.LVL94:
 885 0000 38B5     		push	{r3, r4, r5, lr}
 886              		.cfi_def_cfa_offset 16
 887              		.cfi_offset 3, -16
 888              		.cfi_offset 4, -12
 889              		.cfi_offset 5, -8
 890              		.cfi_offset 14, -4
 891 0002 0546     		mov	r5, r0
 917:.\Generated_Source\PSoC5/I2C_LCD.c **** 
 892              		.loc 1 917 0
 893 0004 4020     		movs	r0, #64
 894              	.LVL95:
 895 0006 FFF7FEFF 		bl	I2C_LCD_WriteControl
 896              	.LVL96:
 920:.\Generated_Source\PSoC5/I2C_LCD.c **** 
 897              		.loc 1 920 0
 898 000a 0020     		movs	r0, #0
 899 000c FFF7FEFF 		bl	I2C_LCD_WrCntrlPatt
 900              	.LVL97:
 923:.\Generated_Source\PSoC5/I2C_LCD.c ****             {
 901              		.loc 1 923 0
 902 0010 0024     		movs	r4, #0
 903 0012 04E0     		b	.L83
 904              	.LVL98:
 905              	.L84:
 926:.\Generated_Source\PSoC5/I2C_LCD.c ****             }
 906              		.loc 1 926 0 discriminator 3
 907 0014 285D     		ldrb	r0, [r5, r4]	@ zero_extendqisi2
 908 0016 FFF7FEFF 		bl	I2C_LCD_WrDataToBuff
 909              	.LVL99:
 923:.\Generated_Source\PSoC5/I2C_LCD.c ****             {
 910              		.loc 1 923 0 discriminator 3
 911 001a 0134     		adds	r4, r4, #1
 912              	.LVL100:
ARM GAS  C:\Users\robert\AppData\Local\Temp\ccN28sHs.s 			page 39


 913 001c E4B2     		uxtb	r4, r4
 914              	.LVL101:
 915              	.L83:
 923:.\Generated_Source\PSoC5/I2C_LCD.c ****             {
 916              		.loc 1 923 0 is_stmt 0 discriminator 1
 917 001e 3F2C     		cmp	r4, #63
 918 0020 F8D9     		bls	.L84
 930:.\Generated_Source\PSoC5/I2C_LCD.c ****             
 919              		.loc 1 930 0 is_stmt 1
 920 0022 FFF7FEFF 		bl	I2C_LCD_SendSequence
 921              	.LVL102:
 933:.\Generated_Source\PSoC5/I2C_LCD.c ****         #else
 922              		.loc 1 933 0
 923 0026 0020     		movs	r0, #0
 924 0028 0146     		mov	r1, r0
 925 002a FFF7FEFF 		bl	I2C_LCD_Position
 926              	.LVL103:
 927 002e 38BD     		pop	{r3, r4, r5, pc}
 928              		.cfi_endproc
 929              	.LFE18:
 930              		.size	I2C_LCD_LoadCustomFonts, .-I2C_LCD_LoadCustomFonts
 931              		.section	.text.I2C_LCD_Init,"ax",%progbits
 932              		.align	2
 933              		.global	I2C_LCD_Init
 934              		.thumb
 935              		.thumb_func
 936              		.type	I2C_LCD_Init, %function
 937              	I2C_LCD_Init:
 938              	.LFB0:
 132:.\Generated_Source\PSoC5/I2C_LCD.c ****     /* Following part of code is only applicable for NXP LCDs */
 939              		.loc 1 132 0
 940              		.cfi_startproc
 941              		@ args = 0, pretend = 0, frame = 0
 942              		@ frame_needed = 0, uses_anonymous_args = 0
 943 0000 08B5     		push	{r3, lr}
 944              		.cfi_def_cfa_offset 8
 945              		.cfi_offset 3, -8
 946              		.cfi_offset 14, -4
 136:.\Generated_Source\PSoC5/I2C_LCD.c ****         /* Split screen configuration  */
 947              		.loc 1 136 0
 948 0002 3520     		movs	r0, #53
 949 0004 FFF7FEFF 		bl	I2C_LCD_SendCmd
 950              	.LVL104:
 138:.\Generated_Source\PSoC5/I2C_LCD.c ****         /* LCD Module format: left to right column, and top to bottom rows  */
 951              		.loc 1 138 0
 952 0008 0220     		movs	r0, #2
 953 000a FFF7FEFF 		bl	I2C_LCD_SendCmd
 954              	.LVL105:
 140:.\Generated_Source\PSoC5/I2C_LCD.c ****         /* Icon mode not supported. Disable all icon enable settings */
 955              		.loc 1 140 0
 956 000e 0420     		movs	r0, #4
 957 0010 FFF7FEFF 		bl	I2C_LCD_SendCmd
 958              	.LVL106:
 142:.\Generated_Source\PSoC5/I2C_LCD.c ****         /* Set LCD bias voltage to 4.38 V since LCD module datasheet recommends 4.4 V */
 959              		.loc 1 142 0
 960 0014 0820     		movs	r0, #8
 961 0016 FFF7FEFF 		bl	I2C_LCD_SendCmd
ARM GAS  C:\Users\robert\AppData\Local\Temp\ccN28sHs.s 			page 40


 962              	.LVL107:
 144:.\Generated_Source\PSoC5/I2C_LCD.c ****         /* Select Standard Instruction set, 2x16 display */
 963              		.loc 1 144 0
 964 001a A020     		movs	r0, #160
 965 001c FFF7FEFF 		bl	I2C_LCD_SendCmd
 966              	.LVL108:
 146:.\Generated_Source\PSoC5/I2C_LCD.c ****     #endif /* (I2C_LCD_COMMAND_FORMAT == I2C_LCD_NXP_PCF2119X) */
 967              		.loc 1 146 0
 968 0020 3420     		movs	r0, #52
 969 0022 FFF7FEFF 		bl	I2C_LCD_SendCmd
 970              	.LVL109:
 150:.\Generated_Source\PSoC5/I2C_LCD.c ****     /* Turn on both display and cursor */
 971              		.loc 1 150 0
 972 0026 2420     		movs	r0, #36
 973 0028 FFF7FEFF 		bl	I2C_LCD_WriteControl
 974              	.LVL110:
 152:.\Generated_Source\PSoC5/I2C_LCD.c ****     /* Turn on cursor auto incrementing */
 975              		.loc 1 152 0
 976 002c 0E20     		movs	r0, #14
 977 002e FFF7FEFF 		bl	I2C_LCD_WriteControl
 978              	.LVL111:
 154:.\Generated_Source\PSoC5/I2C_LCD.c ****     /* Turn off cursor underlining */
 979              		.loc 1 154 0
 980 0032 0620     		movs	r0, #6
 981 0034 FFF7FEFF 		bl	I2C_LCD_WriteControl
 982              	.LVL112:
 156:.\Generated_Source\PSoC5/I2C_LCD.c ****     /* Clear the Display */
 983              		.loc 1 156 0
 984 0038 0C20     		movs	r0, #12
 985 003a FFF7FEFF 		bl	I2C_LCD_WriteControl
 986              	.LVL113:
 158:.\Generated_Source\PSoC5/I2C_LCD.c ****     
 987              		.loc 1 158 0
 988 003e 0120     		movs	r0, #1
 989 0040 FFF7FEFF 		bl	I2C_LCD_WriteControl
 990              	.LVL114:
 162:.\Generated_Source\PSoC5/I2C_LCD.c ****     #endif /* I2C_LCD_CUSTOM_CHAR_SET != I2C_LCD_NONE */
 991              		.loc 1 162 0
 992 0044 0148     		ldr	r0, .L88
 993 0046 FFF7FEFF 		bl	I2C_LCD_LoadCustomFonts
 994              	.LVL115:
 995 004a 08BD     		pop	{r3, pc}
 996              	.L89:
 997              		.align	2
 998              	.L88:
 999 004c 4C000000 		.word	.LANCHOR1+76
 1000              		.cfi_endproc
 1001              	.LFE0:
 1002              		.size	I2C_LCD_Init, .-I2C_LCD_Init
 1003              		.section	.text.I2C_LCD_Start,"ax",%progbits
 1004              		.align	2
 1005              		.global	I2C_LCD_Start
 1006              		.thumb
 1007              		.thumb_func
 1008              		.type	I2C_LCD_Start, %function
 1009              	I2C_LCD_Start:
 1010              	.LFB2:
ARM GAS  C:\Users\robert\AppData\Local\Temp\ccN28sHs.s 			page 41


 218:.\Generated_Source\PSoC5/I2C_LCD.c ****     /* If not initialized then perform initialization */
 1011              		.loc 1 218 0
 1012              		.cfi_startproc
 1013              		@ args = 0, pretend = 0, frame = 0
 1014              		@ frame_needed = 0, uses_anonymous_args = 0
 1015 0000 08B5     		push	{r3, lr}
 1016              		.cfi_def_cfa_offset 8
 1017              		.cfi_offset 3, -8
 1018              		.cfi_offset 14, -4
 220:.\Generated_Source\PSoC5/I2C_LCD.c ****     {
 1019              		.loc 1 220 0
 1020 0002 064B     		ldr	r3, .L93
 1021 0004 93F80431 		ldrb	r3, [r3, #260]	@ zero_extendqisi2
 1022 0008 2BB9     		cbnz	r3, .L91
 222:.\Generated_Source\PSoC5/I2C_LCD.c ****         I2C_LCD_initVar = 1u;
 1023              		.loc 1 222 0
 1024 000a FFF7FEFF 		bl	I2C_LCD_Init
 1025              	.LVL116:
 223:.\Generated_Source\PSoC5/I2C_LCD.c ****     }
 1026              		.loc 1 223 0
 1027 000e 0122     		movs	r2, #1
 1028 0010 024B     		ldr	r3, .L93
 1029 0012 83F80421 		strb	r2, [r3, #260]
 1030              	.L91:
 227:.\Generated_Source\PSoC5/I2C_LCD.c **** }
 1031              		.loc 1 227 0
 1032 0016 FFF7FEFF 		bl	I2C_LCD_Enable
 1033              	.LVL117:
 1034 001a 08BD     		pop	{r3, pc}
 1035              	.L94:
 1036              		.align	2
 1037              	.L93:
 1038 001c 00000000 		.word	.LANCHOR0
 1039              		.cfi_endproc
 1040              	.LFE2:
 1041              		.size	I2C_LCD_Start, .-I2C_LCD_Start
 1042              		.global	I2C_LCD_customFonts
 1043              		.global	I2C_LCD_initVar
 1044              		.section	.rodata
 1045              		.align	2
 1046              		.set	.LANCHOR1,. + 0
 1047              		.type	I2C_LCD_cmdPatt, %object
 1048              		.size	I2C_LCD_cmdPatt, 57
 1049              	I2C_LCD_cmdPatt:
 1050 0000 01       		.byte	1
 1051 0001 40       		.byte	64
 1052 0002 00       		.byte	0
 1053 0003 02       		.byte	2
 1054 0004 00       		.byte	0
 1055 0005 0C       		.byte	12
 1056 0006 02       		.byte	2
 1057 0007 00       		.byte	0
 1058 0008 08       		.byte	8
 1059 0009 01       		.byte	1
 1060 000a 00       		.byte	0
 1061 000b 80       		.byte	-128
 1062 000c 02       		.byte	2
ARM GAS  C:\Users\robert\AppData\Local\Temp\ccN28sHs.s 			page 42


 1063 000d 00       		.byte	0
 1064 000e 02       		.byte	2
 1065 000f 02       		.byte	2
 1066 0010 00       		.byte	0
 1067 0011 03       		.byte	3
 1068 0012 02       		.byte	2
 1069 0013 00       		.byte	0
 1070 0014 10       		.byte	16
 1071 0015 02       		.byte	2
 1072 0016 00       		.byte	0
 1073 0017 14       		.byte	20
 1074 0018 02       		.byte	2
 1075 0019 00       		.byte	0
 1076 001a 0E       		.byte	14
 1077 001b 02       		.byte	2
 1078 001c 00       		.byte	0
 1079 001d 0D       		.byte	13
 1080 001e 02       		.byte	2
 1081 001f 00       		.byte	0
 1082 0020 0F       		.byte	15
 1083 0021 02       		.byte	2
 1084 0022 00       		.byte	0
 1085 0023 01       		.byte	1
 1086 0024 02       		.byte	2
 1087 0025 00       		.byte	0
 1088 0026 40       		.byte	64
 1089 0027 02       		.byte	2
 1090 0028 00       		.byte	0
 1091 0029 24       		.byte	36
 1092 002a 02       		.byte	2
 1093 002b 00       		.byte	0
 1094 002c 06       		.byte	6
 1095 002d 02       		.byte	2
 1096 002e 00       		.byte	0
 1097 002f 04       		.byte	4
 1098 0030 02       		.byte	2
 1099 0031 00       		.byte	0
 1100 0032 25       		.byte	37
 1101 0033 02       		.byte	2
 1102 0034 00       		.byte	0
 1103 0035 05       		.byte	5
 1104 0036 02       		.byte	2
 1105 0037 00       		.byte	0
 1106 0038 04       		.byte	4
 1107 0039 000000   		.space	3
 1108              		.type	I2C_LCD_hex.4993, %object
 1109              		.size	I2C_LCD_hex.4993, 16
 1110              	I2C_LCD_hex.4993:
 1111 003c 30313233 		.ascii	"0123456789ABCDEF"
 1111      34353637 
 1111      38394142 
 1111      43444546 
 1112              		.type	I2C_LCD_customFonts, %object
 1113              		.size	I2C_LCD_customFonts, 64
 1114              	I2C_LCD_customFonts:
 1115 004c 00       		.byte	0
 1116 004d 0E       		.byte	14
ARM GAS  C:\Users\robert\AppData\Local\Temp\ccN28sHs.s 			page 43


 1117 004e 08       		.byte	8
 1118 004f 08       		.byte	8
 1119 0050 08       		.byte	8
 1120 0051 0E       		.byte	14
 1121 0052 00       		.byte	0
 1122 0053 00       		.byte	0
 1123 0054 00       		.byte	0
 1124 0055 0A       		.byte	10
 1125 0056 0A       		.byte	10
 1126 0057 04       		.byte	4
 1127 0058 04       		.byte	4
 1128 0059 04       		.byte	4
 1129 005a 00       		.byte	0
 1130 005b 00       		.byte	0
 1131 005c 00       		.byte	0
 1132 005d 0E       		.byte	14
 1133 005e 0A       		.byte	10
 1134 005f 0E       		.byte	14
 1135 0060 08       		.byte	8
 1136 0061 08       		.byte	8
 1137 0062 00       		.byte	0
 1138 0063 00       		.byte	0
 1139 0064 00       		.byte	0
 1140 0065 0E       		.byte	14
 1141 0066 0A       		.byte	10
 1142 0067 0C       		.byte	12
 1143 0068 0A       		.byte	10
 1144 0069 0A       		.byte	10
 1145 006a 00       		.byte	0
 1146 006b 00       		.byte	0
 1147 006c 00       		.byte	0
 1148 006d 0E       		.byte	14
 1149 006e 08       		.byte	8
 1150 006f 0C       		.byte	12
 1151 0070 08       		.byte	8
 1152 0071 0E       		.byte	14
 1153 0072 00       		.byte	0
 1154 0073 00       		.byte	0
 1155 0074 00       		.byte	0
 1156 0075 0E       		.byte	14
 1157 0076 08       		.byte	8
 1158 0077 0E       		.byte	14
 1159 0078 02       		.byte	2
 1160 0079 0E       		.byte	14
 1161 007a 00       		.byte	0
 1162 007b 00       		.byte	0
 1163 007c 00       		.byte	0
 1164 007d 0E       		.byte	14
 1165 007e 08       		.byte	8
 1166 007f 0E       		.byte	14
 1167 0080 02       		.byte	2
 1168 0081 0E       		.byte	14
 1169 0082 00       		.byte	0
 1170 0083 00       		.byte	0
 1171 0084 00       		.byte	0
 1172 0085 04       		.byte	4
 1173 0086 04       		.byte	4
ARM GAS  C:\Users\robert\AppData\Local\Temp\ccN28sHs.s 			page 44


 1174 0087 04       		.byte	4
 1175 0088 00       		.byte	0
 1176 0089 04       		.byte	4
 1177 008a 00       		.byte	0
 1178 008b 00       		.byte	0
 1179              		.data
 1180              		.set	.LANCHOR2,. + 0
 1181              		.type	I2C_LCD_address, %object
 1182              		.size	I2C_LCD_address, 1
 1183              	I2C_LCD_address:
 1184 0000 3A       		.byte	58
 1185              		.bss
 1186              		.align	2
 1187              		.set	.LANCHOR0,. + 0
 1188              		.type	I2C_LCD_buffIndex, %object
 1189              		.size	I2C_LCD_buffIndex, 1
 1190              	I2C_LCD_buffIndex:
 1191 0000 00       		.space	1
 1192 0001 000000   		.space	3
 1193              		.type	I2C_LCD_buff, %object
 1194              		.size	I2C_LCD_buff, 256
 1195              	I2C_LCD_buff:
 1196 0004 00000000 		.space	256
 1196      00000000 
 1196      00000000 
 1196      00000000 
 1196      00000000 
 1197              		.type	I2C_LCD_initVar, %object
 1198              		.size	I2C_LCD_initVar, 1
 1199              	I2C_LCD_initVar:
 1200 0104 00       		.space	1
 1201 0105 000000   		.text
 1202              	.Letext0:
 1203              		.file 2 ".\\Generated_Source\\PSoC5\\cytypes.h"
 1204              		.file 3 ".\\Generated_Source\\PSoC5\\I2C_M.h"
 1205              		.file 4 ".\\Generated_Source\\PSoC5\\CyLib.h"