ARM GAS  C:\Users\robert\AppData\Local\Temp\ccGLB0kf.s 			page 1


   1              		.syntax unified
   2              		.cpu cortex-m3
   3              		.fpu softvfp
   4              		.eabi_attribute 20, 1
   5              		.eabi_attribute 21, 1
   6              		.eabi_attribute 23, 3
   7              		.eabi_attribute 24, 1
   8              		.eabi_attribute 25, 1
   9              		.eabi_attribute 26, 1
  10              		.eabi_attribute 30, 1
  11              		.eabi_attribute 34, 1
  12              		.eabi_attribute 18, 4
  13              		.thumb
  14              		.file	"main.c"
  15              		.text
  16              	.Ltext0:
  17              		.cfi_sections	.debug_frame
  18              		.section	.text.FlipLcdIsr,"ax",%progbits
  19              		.align	2
  20              		.global	FlipLcdIsr
  21              		.thumb
  22              		.thumb_func
  23              		.type	FlipLcdIsr, %function
  24              	FlipLcdIsr:
  25              	.LFB63:
  26              		.file 1 ".\\main.c"
   1:.\main.c      **** /*******************************************************************************
   2:.\main.c      **** * File Name: main.c
   3:.\main.c      **** *
   4:.\main.c      **** * Version: 1.0
   5:.\main.c      **** *
   6:.\main.c      **** * Description:
   7:.\main.c      **** *  This is source code for the datasheet example of the I2C LCD component.
   8:.\main.c      **** *   
   9:.\main.c      **** * Related Document:
  10:.\main.c      **** *  PCF2119x LCD controllers/drivers
  11:.\main.c      **** *
  12:.\main.c      **** ********************************************************************************
  13:.\main.c      **** * Copyright 2013-2014, Cypress Semiconductor Corporation. All rights reserved.
  14:.\main.c      **** * This software is owned by Cypress Semiconductor Corporation and is protected
  15:.\main.c      **** * by and subject to worldwide patent and copyright laws and treaties.
  16:.\main.c      **** * Therefore, you may use this software only as provided in the license agreement
  17:.\main.c      **** * accompanying the software package from which you obtained this software.
  18:.\main.c      **** * CYPRESS AND ITS SUPPLIERS MAKE NO WARRANTY OF ANY KIND, EXPRESS OR IMPLIED,
  19:.\main.c      **** * WITH REGARD TO THIS SOFTWARE, INCLUDING, BUT NOT LIMITED TO, NONINFRINGEMENT,
  20:.\main.c      **** * IMPLIED WARRANTIES OF MERCHANTABILITY AND FITNESS FOR A PARTICULAR PURPOSE.
  21:.\main.c      **** *******************************************************************************/
  22:.\main.c      **** 
  23:.\main.c      **** #include <device.h>
  24:.\main.c      **** 
  25:.\main.c      **** 
  26:.\main.c      **** #define NUM_CUSTOM_CHARS       (8u)
  27:.\main.c      **** #define LCD_MODULE_ADDRESS     (0x74u)
  28:.\main.c      **** 
  29:.\main.c      **** #define NORMAL_STATE           (0u)
  30:.\main.c      **** #define FLIPPED_STATE          (1u)
  31:.\main.c      **** 
ARM GAS  C:\Users\robert\AppData\Local\Temp\ccGLB0kf.s 			page 2


  32:.\main.c      **** #define ROW_ZERO               (0u)
  33:.\main.c      **** #define ROW_ONE                (1u)
  34:.\main.c      **** #define COLUMN_ZERO            (0u)
  35:.\main.c      **** 
  36:.\main.c      **** CY_ISR_PROTO(FlipLcdIsr);
  37:.\main.c      **** 
  38:.\main.c      **** 
  39:.\main.c      **** /**********************************************************************  
  40:.\main.c      **** * Array with IDs of custom characters. The constants are defined by the 
  41:.\main.c      **** * I2C LCD component.
  42:.\main.c      **** **********************************************************************/
  43:.\main.c      **** char8 string[] = {I2C_LCD_CUSTOM_0, I2C_LCD_CUSTOM_1, I2C_LCD_CUSTOM_2, I2C_LCD_CUSTOM_3, 
  44:.\main.c      ****                   I2C_LCD_CUSTOM_4, I2C_LCD_CUSTOM_5, I2C_LCD_CUSTOM_6, I2C_LCD_CUSTOM_7};
  45:.\main.c      **** 
  46:.\main.c      **** /* Stores state of display */
  47:.\main.c      **** volatile uint8 lcdState = NORMAL_STATE;
  48:.\main.c      **** 
  49:.\main.c      **** /*******************************************************************************
  50:.\main.c      **** * Function Name: WakeupIsr
  51:.\main.c      **** ********************************************************************************
  52:.\main.c      **** * Summary:
  53:.\main.c      **** *  Changes the state of the display.
  54:.\main.c      **** *
  55:.\main.c      **** * Parameters:
  56:.\main.c      **** *  None
  57:.\main.c      **** *
  58:.\main.c      **** * Return:
  59:.\main.c      **** *  None
  60:.\main.c      **** *
  61:.\main.c      **** *******************************************************************************/
  62:.\main.c      **** CY_ISR(FlipLcdIsr)
  63:.\main.c      **** {
  27              		.loc 1 63 0
  28              		.cfi_startproc
  29              		@ args = 0, pretend = 0, frame = 0
  30              		@ frame_needed = 0, uses_anonymous_args = 0
  31 0000 08B5     		push	{r3, lr}
  32              		.cfi_def_cfa_offset 8
  33              		.cfi_offset 3, -8
  34              		.cfi_offset 14, -4
  64:.\main.c      ****     /***********************************************************************
  65:.\main.c      ****     * Analyze the display state and change the variable value to opposite
  66:.\main.c      ****     * the actual flipping will occur in main loop.
  67:.\main.c      ****     ***********************************************************************/
  68:.\main.c      ****     if(NORMAL_STATE == lcdState)
  35              		.loc 1 68 0
  36 0002 094B     		ldr	r3, .L5
  37 0004 1B78     		ldrb	r3, [r3]	@ zero_extendqisi2
  38 0006 13F0FF0F 		tst	r3, #255
  39 000a 03D1     		bne	.L2
  69:.\main.c      ****     {
  70:.\main.c      ****         lcdState = FLIPPED_STATE;
  40              		.loc 1 70 0
  41 000c 0122     		movs	r2, #1
  42 000e 064B     		ldr	r3, .L5
  43 0010 1A70     		strb	r2, [r3]
  44 0012 02E0     		b	.L3
ARM GAS  C:\Users\robert\AppData\Local\Temp\ccGLB0kf.s 			page 3


  45              	.L2:
  71:.\main.c      ****     }
  72:.\main.c      ****     else
  73:.\main.c      ****     {
  74:.\main.c      ****         lcdState = NORMAL_STATE;
  46              		.loc 1 74 0
  47 0014 0022     		movs	r2, #0
  48 0016 044B     		ldr	r3, .L5
  49 0018 1A70     		strb	r2, [r3]
  50              	.L3:
  75:.\main.c      ****     }
  76:.\main.c      ****     
  77:.\main.c      ****     /* Some delay to avoid "multiple" button press at one time */
  78:.\main.c      ****     CyDelay(200u);
  51              		.loc 1 78 0
  52 001a C820     		movs	r0, #200
  53 001c FFF7FEFF 		bl	CyDelay
  54              	.LVL0:
  79:.\main.c      ****     
  80:.\main.c      ****     /* Clear interrupt flag for this port */
  81:.\main.c      ****     Button_ClearInterrupt();
  55              		.loc 1 81 0
  56 0020 FFF7FEFF 		bl	Button_ClearInterrupt
  57              	.LVL1:
  58 0024 08BD     		pop	{r3, pc}
  59              	.L6:
  60 0026 00BF     		.align	2
  61              	.L5:
  62 0028 00000000 		.word	.LANCHOR0
  63              		.cfi_endproc
  64              	.LFE63:
  65              		.size	FlipLcdIsr, .-FlipLcdIsr
  66              		.section	.text.main,"ax",%progbits
  67              		.align	2
  68              		.global	main
  69              		.thumb
  70              		.thumb_func
  71              		.type	main, %function
  72              	main:
  73              	.LFB64:
  82:.\main.c      **** }
  83:.\main.c      **** 
  84:.\main.c      **** 
  85:.\main.c      **** /*******************************************************************************
  86:.\main.c      **** * Function Name: main
  87:.\main.c      **** ********************************************************************************
  88:.\main.c      **** * Summary:
  89:.\main.c      **** *  Demonstrate some of the functionality of I2C LCD.
  90:.\main.c      **** *
  91:.\main.c      **** * Parameters:
  92:.\main.c      **** *  None
  93:.\main.c      **** *
  94:.\main.c      **** * Return:
  95:.\main.c      **** *  None
  96:.\main.c      **** *
  97:.\main.c      **** *******************************************************************************/
  98:.\main.c      **** int main(void)
ARM GAS  C:\Users\robert\AppData\Local\Temp\ccGLB0kf.s 			page 4


  99:.\main.c      **** {
  74              		.loc 1 99 0
  75              		.cfi_startproc
  76              		@ args = 0, pretend = 0, frame = 0
  77              		@ frame_needed = 0, uses_anonymous_args = 0
  78 0000 10B5     		push	{r4, lr}
  79              		.cfi_def_cfa_offset 8
  80              		.cfi_offset 4, -8
  81              		.cfi_offset 14, -4
 100:.\main.c      ****     uint8 i;
 101:.\main.c      ****     
 102:.\main.c      ****     /********************************************************************** 
 103:.\main.c      ****     * Interrupts should be enabled as the I2C Master uses interrupt to
 104:.\main.c      ****     * transfer data.
 105:.\main.c      ****     **********************************************************************/
 106:.\main.c      ****     CyGlobalIntEnable;
  82              		.loc 1 106 0
  83              	@ 106 ".\main.c" 1
  84 0002 62B6     		CPSIE   i
  85              	@ 0 "" 2
 107:.\main.c      ****     
 108:.\main.c      ****     /* ISR initialization */
 109:.\main.c      ****     Button_Isr_StartEx(FlipLcdIsr);
  86              		.loc 1 109 0
  87              		.thumb
  88 0004 1D48     		ldr	r0, .L14
  89 0006 FFF7FEFF 		bl	Button_Isr_StartEx
  90              	.LVL2:
 110:.\main.c      ****     
 111:.\main.c      ****     /* Required 1 ms reset pulse for LCD Module */
 112:.\main.c      ****     LCD_RST_Write(1u);
  91              		.loc 1 112 0
  92 000a 0120     		movs	r0, #1
  93 000c FFF7FEFF 		bl	LCD_RST_Write
  94              	.LVL3:
 113:.\main.c      ****     CyDelay(1u);
  95              		.loc 1 113 0
  96 0010 0120     		movs	r0, #1
  97 0012 FFF7FEFF 		bl	CyDelay
  98              	.LVL4:
 114:.\main.c      ****     LCD_RST_Write(0u);
  99              		.loc 1 114 0
 100 0016 0020     		movs	r0, #0
 101 0018 FFF7FEFF 		bl	LCD_RST_Write
 102              	.LVL5:
 115:.\main.c      ****     
 116:.\main.c      ****     /*********************************************************************** 
 117:.\main.c      ****     * I2C LCD component doesn't start the I2C master but it should be
 118:.\main.c      ****     * enabled for I2C LCD operation.
 119:.\main.c      ****     ***********************************************************************/
 120:.\main.c      ****     I2C_M_Start();
 103              		.loc 1 120 0
 104 001c FFF7FEFF 		bl	I2C_M_Start
 105              	.LVL6:
 121:.\main.c      ****     
 122:.\main.c      ****     /***********************************************************************
 123:.\main.c      ****     * Start the component. It also loads the custom font which is specified 
ARM GAS  C:\Users\robert\AppData\Local\Temp\ccGLB0kf.s 			page 5


 124:.\main.c      ****     * in the customizer.
 125:.\main.c      ****     ***********************************************************************/
 126:.\main.c      ****     I2C_LCD_Start();
 106              		.loc 1 126 0
 107 0020 FFF7FEFF 		bl	I2C_LCD_Start
 108              	.LVL7:
 127:.\main.c      ****     
 128:.\main.c      ****     /* Delay prior of printing custom characters */
 129:.\main.c      ****     CyDelay(1000u);
 109              		.loc 1 129 0
 110 0024 4FF47A70 		mov	r0, #1000
 111 0028 FFF7FEFF 		bl	CyDelay
 112              	.LVL8:
 130:.\main.c      ****     
 131:.\main.c      ****     /***********************************************************************
 132:.\main.c      ****     * Following code will print the eight custom characters in the first row 
 133:.\main.c      ****     * of the LCD. The data is displayed using I2C_LCD_WriteData().
 134:.\main.c      ****     ***********************************************************************/
 135:.\main.c      ****     /* Set position to the start of the first row of the LCD module */
 136:.\main.c      ****     I2C_LCD_Position(ROW_ZERO, COLUMN_ZERO);
 113              		.loc 1 136 0
 114 002c 0020     		movs	r0, #0
 115 002e 0146     		mov	r1, r0
 116 0030 FFF7FEFF 		bl	I2C_LCD_Position
 117              	.LVL9:
 137:.\main.c      ****     
 138:.\main.c      ****     for(i = 0u; i < NUM_CUSTOM_CHARS; i++)
 118              		.loc 1 138 0
 119 0034 0024     		movs	r4, #0
 120 0036 05E0     		b	.L8
 121              	.LVL10:
 122              	.L9:
 139:.\main.c      ****     {
 140:.\main.c      ****         /* Display custom character specified by 'i' */
 141:.\main.c      ****         I2C_LCD_WriteData(string[i]);
 123              		.loc 1 141 0 discriminator 3
 124 0038 114B     		ldr	r3, .L14+4
 125 003a 185D     		ldrb	r0, [r3, r4]	@ zero_extendqisi2
 126 003c FFF7FEFF 		bl	I2C_LCD_WriteData
 127              	.LVL11:
 138:.\main.c      ****     {
 128              		.loc 1 138 0 discriminator 3
 129 0040 0134     		adds	r4, r4, #1
 130              	.LVL12:
 131 0042 E4B2     		uxtb	r4, r4
 132              	.LVL13:
 133              	.L8:
 138:.\main.c      ****     {
 134              		.loc 1 138 0 is_stmt 0 discriminator 1
 135 0044 072C     		cmp	r4, #7
 136 0046 F7D9     		bls	.L9
 142:.\main.c      ****     }
 143:.\main.c      ****     
 144:.\main.c      ****     /***********************************************************************
 145:.\main.c      ****     * Following code will print the eight custom characters in the second 
 146:.\main.c      ****     * row of the LCD. The data is displayed using I2C_LCD_PrintString().
 147:.\main.c      ****     * This is more efficient way of displaying data as the data is sent with 
ARM GAS  C:\Users\robert\AppData\Local\Temp\ccGLB0kf.s 			page 6


 148:.\main.c      ****     * one transaction comparing to eight transaction done with 
 149:.\main.c      ****     * I2C_LCD_WriteData().
 150:.\main.c      ****     ***********************************************************************/
 151:.\main.c      ****     /* Set position to start of second row of LCD module */
 152:.\main.c      ****     I2C_LCD_Position(ROW_ONE, COLUMN_ZERO);
 137              		.loc 1 152 0 is_stmt 1
 138 0048 0120     		movs	r0, #1
 139 004a 0021     		movs	r1, #0
 140 004c FFF7FEFF 		bl	I2C_LCD_Position
 141              	.LVL14:
 153:.\main.c      ****     
 154:.\main.c      ****     /* Display entire string of custom characters */
 155:.\main.c      ****     I2C_LCD_PrintString("Cypress!");
 142              		.loc 1 155 0
 143 0050 0C48     		ldr	r0, .L14+8
 144 0052 FFF7FEFF 		bl	I2C_LCD_PrintString
 145              	.LVL15:
 156:.\main.c      ****     
 157:.\main.c      ****     /***********************************************************************
 158:.\main.c      ****     * Select Basic + Extended instruction(functions). This allows using
 159:.\main.c      ****     * extended functionality like display flipping. 
 160:.\main.c      ****     * 
 161:.\main.c      ****     * Each function in I2C LCD component has an address macro and 
 162:.\main.c      ****     * the I2C_LCD_AddrSelectExtendedFuncs() is an example of address macro 
 163:.\main.c      ****     * usage.
 164:.\main.c      ****     ***********************************************************************/
 165:.\main.c      ****     I2C_LCD_AddrSelectExtendedFuncs(LCD_MODULE_ADDRESS);
 146              		.loc 1 165 0
 147 0056 7420     		movs	r0, #116
 148 0058 FFF7FEFF 		bl	I2C_LCD_SetAddr
 149              	.LVL16:
 150 005c 2520     		movs	r0, #37
 151 005e FFF7FEFF 		bl	I2C_LCD_WriteControl
 152              	.LVL17:
 153              	.L10:
 166:.\main.c      ****     
 167:.\main.c      ****     while(1u)
 168:.\main.c      ****     {
 169:.\main.c      ****         /* Analyze LCD state variable and set state appropriately */
 170:.\main.c      ****         if(NORMAL_STATE == lcdState)
 154              		.loc 1 170 0
 155 0062 094B     		ldr	r3, .L14+12
 156 0064 1B78     		ldrb	r3, [r3]	@ zero_extendqisi2
 157 0066 13F0FF0F 		tst	r3, #255
 158 006a 03D1     		bne	.L11
 171:.\main.c      ****         {
 172:.\main.c      ****             I2C_LCD_SetTopToBottom();
 159              		.loc 1 172 0
 160 006c 0420     		movs	r0, #4
 161 006e FFF7FEFF 		bl	I2C_LCD_WriteControl
 162              	.LVL18:
 163 0072 F6E7     		b	.L10
 164              	.L11:
 173:.\main.c      ****         }
 174:.\main.c      ****         else
 175:.\main.c      ****         {
 176:.\main.c      ****             I2C_LCD_SetBottomToTop();
ARM GAS  C:\Users\robert\AppData\Local\Temp\ccGLB0kf.s 			page 7


 165              		.loc 1 176 0
 166 0074 0520     		movs	r0, #5
 167 0076 FFF7FEFF 		bl	I2C_LCD_WriteControl
 168              	.LVL19:
 169 007a F2E7     		b	.L10
 170              	.L15:
 171              		.align	2
 172              	.L14:
 173 007c 00000000 		.word	FlipLcdIsr
 174 0080 00000000 		.word	.LANCHOR1
 175 0084 00000000 		.word	.LC0
 176 0088 00000000 		.word	.LANCHOR0
 177              		.cfi_endproc
 178              	.LFE64:
 179              		.size	main, .-main
 180              		.global	lcdState
 181              		.global	string
 182              		.data
 183              		.align	2
 184              		.set	.LANCHOR1,. + 0
 185              		.type	string, %object
 186              		.size	string, 8
 187              	string:
 188 0000 00       		.byte	0
 189 0001 01       		.byte	1
 190 0002 02       		.byte	2
 191 0003 03       		.byte	3
 192 0004 04       		.byte	4
 193 0005 05       		.byte	5
 194 0006 06       		.byte	6
 195 0007 07       		.byte	7
 196              		.section	.rodata.str1.4,"aMS",%progbits,1
 197              		.align	2
 198              	.LC0:
 199 0000 43797072 		.ascii	"Cypress!\000"
 199      65737321 
 199      00
 200 0009 000000   		.bss
 201              		.set	.LANCHOR0,. + 0
 202              		.type	lcdState, %object
 203              		.size	lcdState, 1
 204              	lcdState:
 205 0000 00       		.space	1
 206              		.text
 207              	.Letext0:
 208              		.file 2 "c:\\program files (x86)\\cypress\\psoc creator\\3.3\\psoc creator\\import\\gnu\\arm\\4.9.
 209              		.file 3 "c:\\program files (x86)\\cypress\\psoc creator\\3.3\\psoc creator\\import\\gnu\\arm\\4.9.
 210              		.file 4 "Generated_Source\\PSoC5/cytypes.h"
 211              		.file 5 "Generated_Source\\PSoC5/core_cm3.h"
 212              		.file 6 "Generated_Source\\PSoC5/CyLib.h"
 213              		.file 7 "Generated_Source\\PSoC5/Button_Isr.h"
 214              		.file 8 "Generated_Source\\PSoC5/LCD_RST.h"
 215              		.file 9 "Generated_Source\\PSoC5/I2C_M.h"
 216              		.file 10 "Generated_Source\\PSoC5/I2C_LCD.h"
 217              		.file 11 "Generated_Source\\PSoC5/Button.h"