ARM GAS  C:\Users\robert\AppData\Local\Temp\cct8EINp.s 			page 1


   1              		.syntax unified
   2              		.cpu cortex-m3
   3              		.fpu softvfp
   4              		.eabi_attribute 20, 1
   5              		.eabi_attribute 21, 1
   6              		.eabi_attribute 23, 3
   7              		.eabi_attribute 24, 1
   8              		.eabi_attribute 25, 1
   9              		.eabi_attribute 26, 1
  10              		.eabi_attribute 30, 1
  11              		.eabi_attribute 34, 1
  12              		.eabi_attribute 18, 4
  13              		.thumb
  14              		.file	"Stepper.c"
  15              		.text
  16              	.Ltext0:
  17              		.cfi_sections	.debug_frame
  18              		.section	.text.DirectionUp,"ax",%progbits
  19              		.align	2
  20              		.global	DirectionUp
  21              		.thumb
  22              		.thumb_func
  23              		.type	DirectionUp, %function
  24              	DirectionUp:
  25              	.LFB63:
  26              		.file 1 ".\\Stepper.c"
   1:.\Stepper.c   **** /* ========================================
   2:.\Stepper.c   ****  *
   3:.\Stepper.c   ****  * Copyright YOUR COMPANY, THE YEAR
   4:.\Stepper.c   ****  * All Rights Reserved
   5:.\Stepper.c   ****  * UNPUBLISHED, LICENSED SOFTWARE.
   6:.\Stepper.c   ****  *
   7:.\Stepper.c   ****  * CONFIDENTIAL AND PROPRIETARY INFORMATION
   8:.\Stepper.c   ****  * WHICH IS THE PROPERTY OF your company.
   9:.\Stepper.c   ****  *
  10:.\Stepper.c   ****  * ========================================
  11:.\Stepper.c   **** */
  12:.\Stepper.c   **** #include <project.h>
  13:.\Stepper.c   **** #include "Stepper.h"
  14:.\Stepper.c   **** 
  15:.\Stepper.c   **** extern uint8 flag;
  16:.\Stepper.c   **** 
  17:.\Stepper.c   **** #define StepDelay 700
  18:.\Stepper.c   **** #define Lead 8
  19:.\Stepper.c   **** #define MAX_HEIGHT 2400
  20:.\Stepper.c   **** 
  21:.\Stepper.c   **** int HEIGHT;
  22:.\Stepper.c   **** 
  23:.\Stepper.c   **** void DirectionUp(void)
  24:.\Stepper.c   **** {
  27              		.loc 1 24 0
  28              		.cfi_startproc
  29              		@ args = 0, pretend = 0, frame = 0
  30              		@ frame_needed = 0, uses_anonymous_args = 0
  31 0000 08B5     		push	{r3, lr}
  32              		.cfi_def_cfa_offset 8
  33              		.cfi_offset 3, -8
ARM GAS  C:\Users\robert\AppData\Local\Temp\cct8EINp.s 			page 2


  34              		.cfi_offset 14, -4
  25:.\Stepper.c   ****     Stepper_Direction_Write(0);
  35              		.loc 1 25 0
  36 0002 0020     		movs	r0, #0
  37 0004 FFF7FEFF 		bl	Stepper_Direction_Write
  38              	.LVL0:
  39 0008 08BD     		pop	{r3, pc}
  40              		.cfi_endproc
  41              	.LFE63:
  42              		.size	DirectionUp, .-DirectionUp
  43 000a 00BF     		.section	.text.DirectionDown,"ax",%progbits
  44              		.align	2
  45              		.global	DirectionDown
  46              		.thumb
  47              		.thumb_func
  48              		.type	DirectionDown, %function
  49              	DirectionDown:
  50              	.LFB64:
  26:.\Stepper.c   **** }
  27:.\Stepper.c   **** 
  28:.\Stepper.c   **** void DirectionDown(void)
  29:.\Stepper.c   **** {
  51              		.loc 1 29 0
  52              		.cfi_startproc
  53              		@ args = 0, pretend = 0, frame = 0
  54              		@ frame_needed = 0, uses_anonymous_args = 0
  55 0000 08B5     		push	{r3, lr}
  56              		.cfi_def_cfa_offset 8
  57              		.cfi_offset 3, -8
  58              		.cfi_offset 14, -4
  30:.\Stepper.c   ****     Stepper_Direction_Write(1);
  59              		.loc 1 30 0
  60 0002 0120     		movs	r0, #1
  61 0004 FFF7FEFF 		bl	Stepper_Direction_Write
  62              	.LVL1:
  63 0008 08BD     		pop	{r3, pc}
  64              		.cfi_endproc
  65              	.LFE64:
  66              		.size	DirectionDown, .-DirectionDown
  67 000a 00BF     		.section	.text.StepperEnable,"ax",%progbits
  68              		.align	2
  69              		.global	StepperEnable
  70              		.thumb
  71              		.thumb_func
  72              		.type	StepperEnable, %function
  73              	StepperEnable:
  74              	.LFB65:
  31:.\Stepper.c   **** }
  32:.\Stepper.c   **** 
  33:.\Stepper.c   **** void StepperEnable(void)
  34:.\Stepper.c   **** {
  75              		.loc 1 34 0
  76              		.cfi_startproc
  77              		@ args = 0, pretend = 0, frame = 0
  78              		@ frame_needed = 0, uses_anonymous_args = 0
  79 0000 08B5     		push	{r3, lr}
  80              		.cfi_def_cfa_offset 8
ARM GAS  C:\Users\robert\AppData\Local\Temp\cct8EINp.s 			page 3


  81              		.cfi_offset 3, -8
  82              		.cfi_offset 14, -4
  35:.\Stepper.c   ****     Stepper_Enable_Write(0);
  83              		.loc 1 35 0
  84 0002 0020     		movs	r0, #0
  85 0004 FFF7FEFF 		bl	Stepper_Enable_Write
  86              	.LVL2:
  87 0008 08BD     		pop	{r3, pc}
  88              		.cfi_endproc
  89              	.LFE65:
  90              		.size	StepperEnable, .-StepperEnable
  91 000a 00BF     		.section	.text.StepperDisable,"ax",%progbits
  92              		.align	2
  93              		.global	StepperDisable
  94              		.thumb
  95              		.thumb_func
  96              		.type	StepperDisable, %function
  97              	StepperDisable:
  98              	.LFB66:
  36:.\Stepper.c   **** }
  37:.\Stepper.c   **** 
  38:.\Stepper.c   **** void StepperDisable(void)
  39:.\Stepper.c   **** {
  99              		.loc 1 39 0
 100              		.cfi_startproc
 101              		@ args = 0, pretend = 0, frame = 0
 102              		@ frame_needed = 0, uses_anonymous_args = 0
 103 0000 08B5     		push	{r3, lr}
 104              		.cfi_def_cfa_offset 8
 105              		.cfi_offset 3, -8
 106              		.cfi_offset 14, -4
  40:.\Stepper.c   ****     Stepper_Enable_Write(1);
 107              		.loc 1 40 0
 108 0002 0120     		movs	r0, #1
 109 0004 FFF7FEFF 		bl	Stepper_Enable_Write
 110              	.LVL3:
 111 0008 08BD     		pop	{r3, pc}
 112              		.cfi_endproc
 113              	.LFE66:
 114              		.size	StepperDisable, .-StepperDisable
 115 000a 00BF     		.section	.text.Step,"ax",%progbits
 116              		.align	2
 117              		.global	Step
 118              		.thumb
 119              		.thumb_func
 120              		.type	Step, %function
 121              	Step:
 122              	.LFB67:
  41:.\Stepper.c   **** }
  42:.\Stepper.c   **** 
  43:.\Stepper.c   **** void Step(void)
  44:.\Stepper.c   **** {
 123              		.loc 1 44 0
 124              		.cfi_startproc
 125              		@ args = 0, pretend = 0, frame = 0
 126              		@ frame_needed = 0, uses_anonymous_args = 0
 127 0000 08B5     		push	{r3, lr}
ARM GAS  C:\Users\robert\AppData\Local\Temp\cct8EINp.s 			page 4


 128              		.cfi_def_cfa_offset 8
 129              		.cfi_offset 3, -8
 130              		.cfi_offset 14, -4
  45:.\Stepper.c   ****     {
  46:.\Stepper.c   ****         Stepper_Step_Write(1);
 131              		.loc 1 46 0
 132 0002 0120     		movs	r0, #1
 133 0004 FFF7FEFF 		bl	Stepper_Step_Write
 134              	.LVL4:
  47:.\Stepper.c   ****         CyDelayUs(StepDelay);
 135              		.loc 1 47 0
 136 0008 4FF42F70 		mov	r0, #700
 137 000c FFF7FEFF 		bl	CyDelayUs
 138              	.LVL5:
  48:.\Stepper.c   ****         Stepper_Step_Write(0);
 139              		.loc 1 48 0
 140 0010 0020     		movs	r0, #0
 141 0012 FFF7FEFF 		bl	Stepper_Step_Write
 142              	.LVL6:
  49:.\Stepper.c   ****         CyDelayUs(StepDelay);
 143              		.loc 1 49 0
 144 0016 4FF42F70 		mov	r0, #700
 145 001a FFF7FEFF 		bl	CyDelayUs
 146              	.LVL7:
 147 001e 08BD     		pop	{r3, pc}
 148              		.cfi_endproc
 149              	.LFE67:
 150              		.size	Step, .-Step
 151              		.section	.text.StepperStep,"ax",%progbits
 152              		.align	2
 153              		.global	StepperStep
 154              		.thumb
 155              		.thumb_func
 156              		.type	StepperStep, %function
 157              	StepperStep:
 158              	.LFB68:
  50:.\Stepper.c   ****     }
  51:.\Stepper.c   **** 
  52:.\Stepper.c   **** }
  53:.\Stepper.c   **** 
  54:.\Stepper.c   **** 
  55:.\Stepper.c   **** 
  56:.\Stepper.c   **** void StepperStep(int step)
  57:.\Stepper.c   **** {    
 159              		.loc 1 57 0
 160              		.cfi_startproc
 161              		@ args = 0, pretend = 0, frame = 0
 162              		@ frame_needed = 0, uses_anonymous_args = 0
 163              	.LVL8:
 164 0000 70B5     		push	{r4, r5, r6, lr}
 165              		.cfi_def_cfa_offset 16
 166              		.cfi_offset 4, -16
 167              		.cfi_offset 5, -12
 168              		.cfi_offset 6, -8
 169              		.cfi_offset 14, -4
  58:.\Stepper.c   ****     int step_height;
  59:.\Stepper.c   ****     if (step >= 0)
ARM GAS  C:\Users\robert\AppData\Local\Temp\cct8EINp.s 			page 5


 170              		.loc 1 59 0
 171 0002 041E     		subs	r4, r0, #0
 172 0004 06DB     		blt	.L12
  60:.\Stepper.c   ****     {
  61:.\Stepper.c   ****         flag = 0;
 173              		.loc 1 61 0
 174 0006 0022     		movs	r2, #0
 175 0008 1C4B     		ldr	r3, .L20
 176 000a 1A70     		strb	r2, [r3]
  62:.\Stepper.c   ****         DirectionUp();
 177              		.loc 1 62 0
 178 000c FFF7FEFF 		bl	DirectionUp
 179              	.LVL9:
  63:.\Stepper.c   ****         step_height = 1;
 180              		.loc 1 63 0
 181 0010 0126     		movs	r6, #1
 182 0012 04E0     		b	.L13
 183              	.LVL10:
 184              	.L12:
  64:.\Stepper.c   ****     }
  65:.\Stepper.c   ****     else
  66:.\Stepper.c   ****     {
  67:.\Stepper.c   ****         DirectionDown();
 185              		.loc 1 67 0
 186 0014 FFF7FEFF 		bl	DirectionDown
 187              	.LVL11:
  68:.\Stepper.c   ****         step = -step;
 188              		.loc 1 68 0
 189 0018 6442     		negs	r4, r4
 190              	.LVL12:
  69:.\Stepper.c   ****         step_height = -1;
 191              		.loc 1 69 0
 192 001a 4FF0FF36 		mov	r6, #-1
 193              	.LVL13:
 194              	.L13:
  70:.\Stepper.c   ****     }
  71:.\Stepper.c   ****     
  72:.\Stepper.c   ****     StepperEnable();
 195              		.loc 1 72 0
 196 001e FFF7FEFF 		bl	StepperEnable
 197              	.LVL14:
  73:.\Stepper.c   ****     while (step--)
 198              		.loc 1 73 0
 199 0022 25E0     		b	.L14
 200              	.LVL15:
 201              	.L18:
  74:.\Stepper.c   ****     {
  75:.\Stepper.c   ****         if (flag==1){
 202              		.loc 1 75 0
 203 0024 154B     		ldr	r3, .L20
 204 0026 1B78     		ldrb	r3, [r3]	@ zero_extendqisi2
 205 0028 012B     		cmp	r3, #1
 206 002a 06D1     		bne	.L15
  76:.\Stepper.c   ****             StepperDisable();
 207              		.loc 1 76 0
 208 002c FFF7FEFF 		bl	StepperDisable
 209              	.LVL16:
ARM GAS  C:\Users\robert\AppData\Local\Temp\cct8EINp.s 			page 6


  77:.\Stepper.c   ****             CyDelay(1000);
 210              		.loc 1 77 0
 211 0030 4FF47A70 		mov	r0, #1000
 212 0034 FFF7FEFF 		bl	CyDelay
 213              	.LVL17:
  78:.\Stepper.c   ****             //flag =0;
  79:.\Stepper.c   ****             return;
 214              		.loc 1 79 0
 215 0038 70BD     		pop	{r4, r5, r6, pc}
 216              	.LVL18:
 217              	.L15:
  80:.\Stepper.c   ****         }
  81:.\Stepper.c   ****         if (HEIGHT > MAX_HEIGHT)
 218              		.loc 1 81 0
 219 003a 114B     		ldr	r3, .L20+4
 220 003c 1B68     		ldr	r3, [r3]
 221 003e B3F5166F 		cmp	r3, #2400
 222 0042 0EDD     		ble	.L17
  82:.\Stepper.c   ****         {
  83:.\Stepper.c   ****             CyDelay(1000);
 223              		.loc 1 83 0
 224 0044 4FF47A70 		mov	r0, #1000
 225 0048 FFF7FEFF 		bl	CyDelay
 226              	.LVL19:
  84:.\Stepper.c   ****             DirectionDown();
 227              		.loc 1 84 0
 228 004c FFF7FEFF 		bl	DirectionDown
 229              	.LVL20:
  85:.\Stepper.c   ****             Step();
 230              		.loc 1 85 0
 231 0050 FFF7FEFF 		bl	Step
 232              	.LVL21:
  86:.\Stepper.c   ****             HEIGHT = HEIGHT - 1;
 233              		.loc 1 86 0
 234 0054 0A4A     		ldr	r2, .L20+4
 235 0056 1368     		ldr	r3, [r2]
 236 0058 013B     		subs	r3, r3, #1
 237 005a 1360     		str	r3, [r2]
  87:.\Stepper.c   ****             StepperDisable();
 238              		.loc 1 87 0
 239 005c FFF7FEFF 		bl	StepperDisable
 240              	.LVL22:
  88:.\Stepper.c   ****             return;
 241              		.loc 1 88 0
 242 0060 70BD     		pop	{r4, r5, r6, pc}
 243              	.LVL23:
 244              	.L17:
  89:.\Stepper.c   ****         }
  90:.\Stepper.c   ****         else{
  91:.\Stepper.c   ****             Step();
 245              		.loc 1 91 0
 246 0062 FFF7FEFF 		bl	Step
 247              	.LVL24:
  92:.\Stepper.c   ****             HEIGHT = HEIGHT + step_height;
 248              		.loc 1 92 0
 249 0066 064A     		ldr	r2, .L20+4
 250 0068 1368     		ldr	r3, [r2]
ARM GAS  C:\Users\robert\AppData\Local\Temp\cct8EINp.s 			page 7


 251 006a 3344     		add	r3, r3, r6
 252 006c 1360     		str	r3, [r2]
  73:.\Stepper.c   ****     {
 253              		.loc 1 73 0
 254 006e 2C46     		mov	r4, r5
 255              	.LVL25:
 256              	.L14:
 257 0070 651E     		subs	r5, r4, #1
 258              	.LVL26:
 259 0072 002C     		cmp	r4, #0
 260 0074 D6D1     		bne	.L18
  93:.\Stepper.c   ****         }     
  94:.\Stepper.c   ****     }
  95:.\Stepper.c   ****     StepperDisable();
 261              		.loc 1 95 0
 262 0076 FFF7FEFF 		bl	StepperDisable
 263              	.LVL27:
 264 007a 70BD     		pop	{r4, r5, r6, pc}
 265              	.LVL28:
 266              	.L21:
 267              		.align	2
 268              	.L20:
 269 007c 00000000 		.word	flag
 270 0080 00000000 		.word	HEIGHT
 271              		.cfi_endproc
 272              	.LFE68:
 273              		.size	StepperStep, .-StepperStep
 274              		.section	.text.StepperRotate,"ax",%progbits
 275              		.align	2
 276              		.global	StepperRotate
 277              		.thumb
 278              		.thumb_func
 279              		.type	StepperRotate, %function
 280              	StepperRotate:
 281              	.LFB69:
  96:.\Stepper.c   **** }
  97:.\Stepper.c   **** 
  98:.\Stepper.c   **** void StepperRotate(int degree)
  99:.\Stepper.c   **** {
 282              		.loc 1 99 0
 283              		.cfi_startproc
 284              		@ args = 0, pretend = 0, frame = 0
 285              		@ frame_needed = 0, uses_anonymous_args = 0
 286              	.LVL29:
 287 0000 08B5     		push	{r3, lr}
 288              		.cfi_def_cfa_offset 8
 289              		.cfi_offset 3, -8
 290              		.cfi_offset 14, -4
 100:.\Stepper.c   ****     StepperStep(degree*200/360);
 291              		.loc 1 100 0
 292 0002 C823     		movs	r3, #200
 293 0004 03FB00F3 		mul	r3, r3, r0
 294 0008 0448     		ldr	r0, .L24
 295              	.LVL30:
 296 000a 80FB0320 		smull	r2, r0, r0, r3
 297 000e 1844     		add	r0, r0, r3
 298 0010 DB17     		asrs	r3, r3, #31
ARM GAS  C:\Users\robert\AppData\Local\Temp\cct8EINp.s 			page 8


 299 0012 C3EB2020 		rsb	r0, r3, r0, asr #8
 300 0016 FFF7FEFF 		bl	StepperStep
 301              	.LVL31:
 302 001a 08BD     		pop	{r3, pc}
 303              	.L25:
 304              		.align	2
 305              	.L24:
 306 001c B7600BB6 		.word	-1240768329
 307              		.cfi_endproc
 308              	.LFE69:
 309              		.size	StepperRotate, .-StepperRotate
 310              		.section	.text.StepperMove,"ax",%progbits
 311              		.align	2
 312              		.global	StepperMove
 313              		.thumb
 314              		.thumb_func
 315              		.type	StepperMove, %function
 316              	StepperMove:
 317              	.LFB70:
 101:.\Stepper.c   **** }
 102:.\Stepper.c   **** 
 103:.\Stepper.c   **** void StepperMove(int height)
 104:.\Stepper.c   **** {
 318              		.loc 1 104 0
 319              		.cfi_startproc
 320              		@ args = 0, pretend = 0, frame = 0
 321              		@ frame_needed = 0, uses_anonymous_args = 0
 322              	.LVL32:
 323 0000 08B5     		push	{r3, lr}
 324              		.cfi_def_cfa_offset 8
 325              		.cfi_offset 3, -8
 326              		.cfi_offset 14, -4
 105:.\Stepper.c   ****     StepperStep(height*200/Lead);
 327              		.loc 1 105 0
 328 0002 C823     		movs	r3, #200
 329 0004 03FB00F0 		mul	r0, r3, r0
 330              	.LVL33:
 331 0008 0028     		cmp	r0, #0
 332 000a 00DA     		bge	.L27
 333 000c 0730     		adds	r0, r0, #7
 334              	.L27:
 335 000e C010     		asrs	r0, r0, #3
 336 0010 FFF7FEFF 		bl	StepperStep
 337              	.LVL34:
 338 0014 08BD     		pop	{r3, pc}
 339              		.cfi_endproc
 340              	.LFE70:
 341              		.size	StepperMove, .-StepperMove
 342 0016 00BF     		.section	.text.StepperFindZero,"ax",%progbits
 343              		.align	2
 344              		.global	StepperFindZero
 345              		.thumb
 346              		.thumb_func
 347              		.type	StepperFindZero, %function
 348              	StepperFindZero:
 349              	.LFB71:
 106:.\Stepper.c   **** }
ARM GAS  C:\Users\robert\AppData\Local\Temp\cct8EINp.s 			page 9


 107:.\Stepper.c   **** 
 108:.\Stepper.c   **** void StepperFindZero(void)
 109:.\Stepper.c   **** {
 350              		.loc 1 109 0
 351              		.cfi_startproc
 352              		@ args = 0, pretend = 0, frame = 0
 353              		@ frame_needed = 0, uses_anonymous_args = 0
 354 0000 08B5     		push	{r3, lr}
 355              		.cfi_def_cfa_offset 8
 356              		.cfi_offset 3, -8
 357              		.cfi_offset 14, -4
 110:.\Stepper.c   ****     DirectionDown();
 358              		.loc 1 110 0
 359 0002 FFF7FEFF 		bl	DirectionDown
 360              	.LVL35:
 111:.\Stepper.c   ****     StepperEnable();
 361              		.loc 1 111 0
 362 0006 FFF7FEFF 		bl	StepperEnable
 363              	.LVL36:
 112:.\Stepper.c   ****     while(flag == 0)
 364              		.loc 1 112 0
 365 000a 01E0     		b	.L30
 366              	.L31:
 113:.\Stepper.c   ****     {
 114:.\Stepper.c   ****         Step();
 367              		.loc 1 114 0
 368 000c FFF7FEFF 		bl	Step
 369              	.LVL37:
 370              	.L30:
 112:.\Stepper.c   ****     while(flag == 0)
 371              		.loc 1 112 0
 372 0010 044B     		ldr	r3, .L33
 373 0012 1B78     		ldrb	r3, [r3]	@ zero_extendqisi2
 374 0014 002B     		cmp	r3, #0
 375 0016 F9D0     		beq	.L31
 115:.\Stepper.c   ****     }
 116:.\Stepper.c   ****     StepperDisable();
 376              		.loc 1 116 0
 377 0018 FFF7FEFF 		bl	StepperDisable
 378              	.LVL38:
 117:.\Stepper.c   ****     HEIGHT = 0;
 379              		.loc 1 117 0
 380 001c 0022     		movs	r2, #0
 381 001e 024B     		ldr	r3, .L33+4
 382 0020 1A60     		str	r2, [r3]
 383 0022 08BD     		pop	{r3, pc}
 384              	.L34:
 385              		.align	2
 386              	.L33:
 387 0024 00000000 		.word	flag
 388 0028 00000000 		.word	HEIGHT
 389              		.cfi_endproc
 390              	.LFE71:
 391              		.size	StepperFindZero, .-StepperFindZero
 392              		.comm	HEIGHT,4,4
 393              		.text
 394              	.Letext0:
ARM GAS  C:\Users\robert\AppData\Local\Temp\cct8EINp.s 			page 10


 395              		.file 2 "c:\\program files (x86)\\cypress\\psoc creator\\3.3\\psoc creator\\import\\gnu\\arm\\4.9.
 396              		.file 3 "c:\\program files (x86)\\cypress\\psoc creator\\3.3\\psoc creator\\import\\gnu\\arm\\4.9.
 397              		.file 4 "Generated_Source\\PSoC5/cytypes.h"
 398              		.file 5 "Generated_Source\\PSoC5/core_cm3.h"
 399              		.file 6 "Generated_Source\\PSoC5/Stepper_Direction.h"
 400              		.file 7 "Generated_Source\\PSoC5/Stepper_Enable.h"
 401              		.file 8 "Generated_Source\\PSoC5/Stepper_Step.h"
 402              		.file 9 "Generated_Source\\PSoC5/CyLib.h"